((dp1
S'115'
p2
(dp3
S'angle'
p4
F0
sS'pos'
p5
(F245.62334927011381
F129.1716935518958
tp6
sS'size'
p7
(F35.720723871472956
F44.454459355624664
tp8
ssS'114'
p9
(dp10
g4
cnumpy.core.multiarray
scalar
p11
(cnumpy
dtype
p12
(S'f8'
I0
I1
tRp13
(I3
S'<'
NNNI-1
I-1
I0
tbS'P<\xf6\xad\xfc\x14?\xc0'
tRp14
sg5
(F176.33000645580935
F257.73433347443466
tp15
sg7
(F62.778335011170455
F30.949734016748607
tp16
ssS'117'
p17
(dp18
g4
F0
sg5
(F20
F20
tp19
sg7
(F20
F20
tp20
ssS'109'
p21
(dp22
g4
F0
sg5
(F20
F20
tp23
sg7
(F20
F20
tp24
ssS'116'
p25
(dp26
g4
F0
sg5
(F218.25579549024269
F137.03205548763228
tp27
sg7
(F57.555062581852098
F71.529039356494764
tp28
ssS'110'
p29
(dp30
g4
F0
sg5
(F20
F20
tp31
sg7
(F20
F20
tp32
ssS'113'
p33
(dp34
g4
F0
sg5
(F157.99302064959625
F102.09711355102559
tp35
sg7
(F95.110125163704282
F102.97048709944079
tp36
ssS'112'
p37
(dp38
g4
F0
sg5
(F20
F20
tp39
sg7
(F20
F20
tp40
ssS'111'
p41
(dp42
g4
g11
(g13
S'Vw\xcdb\xdb\x16@\xc0'
tRp43
sg5
(F32.90934424861473
F62.855812717665628
tp44
sg7
(F91.043539648078323
F75.612963517323919
tp45
ssS'118'
p46
(dp47
g4
F0
sg5
(F20
F20
tp48
sg7
(F20
F20
tp49
ss(dp50
g2
(dp51
S'points'
p52
(lp53
(F-33.013913083634776
F172.334338710379
tp54
a(F7.161270143462815
F162.72722967781212
tp55
a(F53.450068209466593
F141.76626451584815
tp56
a(F90.131757242903518
F102.46445483716568
tp57
a(F102.35898692071584
F107.70469612765669
tp58
a(F118.95308434060399
F66.656139352143867
tp59
a(F127.68681982475567
F29.974450318706914
tp60
a(F125.06669917951018
F-4.0871180694845748
tp61
a(F90.131757242903518
F-59.109651619640033
tp62
a(F52.57669466105142
F-87.057605168925363
tp63
a(F-8.5594537280101406
F-101.03158194356803
tp64
a(F-57.642654195400908
F-88.210728389931774
tp65
a(F-112.49090598941483
F-49.502542587073208
tp66
a(F-136.0719917966243
F-2.3403709726542559
tp67
a(F-142.18560663553046
F60.542524513237709
tp68
a(F-125.37290000435077
F105.19771677725308
tp69
a(F-93.058078712989627
F129.56458451932895
tp70
a(F-84.411934842386657
F151.48651484325691
tp71
asg4
F0
sg5
(F149.45234469544317
F107.42494645506545
tp72
sS'closed'
p73
I01
sg7
(F1
F1
tp74
ssg9
(dp75
g52
(lp76
(F-6.1136148389061873
F-27.074580000870128
tp77
a(F-51.249289683903356
F-61.090418884117526
tp78
a(F-107.14519678247399
F-63.710539529363018
tp79
a(F-169.15471871995078
F-35.762585980077688
tp80
a(F-204.08966065655744
F-8.6880059792075599
tp81
a(F-210.2032754954636
F44.587780474117579
tp82
a(F-200.5961664628968
F81.269469507554561
tp83
a(F-216.31689033436976
F93.496699185366879
tp84
a(F-207.47001355537634
F124.74882101779119
tp85
a(F-156.92748904213846
F175.59381273639247
tp86
a(F-80.943990330019005
F209.22001183261764
tp87
a(F8.1401116083279135
F159.87308886491951
tp88
a(F30.087591613548852
F75.415424517588633
tp89
a(F30
F10
tp90
asg4
F0
sg5
(F251.53158194356786
F79.711013073427438
tp91
sg73
I01
sg7
(F1
F1
tp92
ssg17
(dp93
g52
(lp94
(F123.42541999912979
F29.101076770291968
tp95
a(F129.53903483803597
F6.3933645114976514
tp96
a(F127.79228774120568
F-38.148686457675836
tp97
a(F137.39939677377245
F-48.629169038657807
tp98
a(F91.110598707768702
F-100.15820839515263
tp99
a(F18.340844516718477
F-121.39892322970806
tp100
a(F-26.794830328278749
F-117.62567936345593
tp101
a(F-58.236278071224731
F-98.41146129832228
tp102
a(F-85.310858072094888
F-82.690737426849324
tp103
a(F-118.49905291187117
F-22.427962586202824
tp104
a(F-120.24580000870151
F49.188668383840792
tp105
a(F-90.551099362585859
F107.70469612765692
tp106
a(F-49.50254258707308
F136.52602322535742
tp107
a(F20.367341286140203
F153.99349419366078
tp108
a(F22.227229677812318
F140.13265871385974
tp109
a(F78.996510324798095
F120.83084903517727
tp110
a(F88.490478062523209
F129.53903483803603
tp111
a(F119.93192580546921
F98.097587095090091
tp112
a(F140.04506710031094
F58.035545162834126
tp113
asg4
F0
sg5
(F138.86639419801142
F128.38591161702939
tp114
sg73
I01
sg7
(F1
F1
tp115
ssg21
(dp116
g52
(lp117
(F86.74373096569289
F-111.51206452454983
tp118
a(F27.354329673461592
F-143.826885815911
tp119
a(F-32.90844516718488
F-135.96652388017446
tp120
a(F-79.476992905780108
F-114.41193484238676
tp121
a(F-108.01857033088915
F-81.817363878434179
tp122
a(F-126.35941484760764
F-25.921456779863547
tp123
a(F-111.5120645245498
F-13.694227102051201
tp124
a(F-101.90495549198299
F16.873847092479593
tp125
a(F-106.27182323405881
F36.088065157613244
tp126
a(F-87.817837422498599
F54.542050969173488
tp127
a(F-23.301336134618055
F84.123610320447369
tp128
a(F10.593769784686486
F92.759441109197041
tp129
a(F54.542050969173488
F84.149160001740285
tp130
a(F126.04554064437536
F43.075053544934576
tp131
a(F136.52602322535733
F-2.3403709726540569
tp132
a(F131.31133161615924
F-50.262774840646472
tp133
asg4
F0
sg5
(F136.37691364528843
F156.48644991471483
tp134
sg73
I01
sg7
(F1
F1
tp135
ssg25
(dp136
g52
(lp137
(F70.149633545804733
F-92.297846459416064
tp138
a(F32.594570963952606
F-104.52507613722838
tp139
a(F-9.3273593599753895
F-109.76531742771937
tp140
a(F-56.769280646985806
F-101.31133161615924
tp141
a(F-97.538087749907206
F-66.970013555376227
tp142
a(F-120.24580000870154
F-4.0871180694842622
tp143
a(F-122.86592065394703
F55.302283222747036
tp144
a(F-95.678199358235133
F104.32434322883793
tp145
a(F-68.716760652206716
F132.15915548328161
tp146
a(F-24.174709683033228
F147.87987935475462
tp147
a(F22.114088382970579
F149.62662645158491
tp148
a(F63.275786453325139
F133.05807871298958
tp149
a(F107.70469612765689
F98.970960643505322
tp150
a(F137.39939677377259
F61.415898061653166
tp151
a(F135.65264967694219
F2.0264967694218967
tp152
a(F125.17216709596022
F-39.022060006090896
tp153
a(F105.98349871211948
F-60.743257421628471
tp154
asg4
F0
sg5
(F145.85338258533278
F143.23326194008723
tp155
sg73
I01
sg7
(F1
F1
tp156
ssg29
(dp157
g52
(lp158
(F48.908918711249356
F-53.275786453325139
tp159
a(F12.506979350403867
F-142.08013871908059
tp160
a(F-66.09664000696111
F-169.15471871995072
tp161
a(F-156.9274890421384
F-150.81387420323227
tp162
a(F-198.73627807122466
F-95.678199358235105
tp163
a(F-203.21628710814218
F0.27974967259149253
tp164
a(F-147.32038000957155
F70.149633545804761
tp165
a(F-60.856398716470153
F78.883369029956441
tp166
a(F-16.314347747296694
F54.428909674331805
tp167
a(F10
F30
tp168
a(F30
F10
tp169
asg4
F0
sg5
(F234.06411097526453
F191.26880710292136
tp170
sg73
I01
sg7
(F1
F1
tp171
ssg33
(dp172
g52
(lp173
(F158.36036193573653
F-22.427962586202852
tp174
a(F135.65264967694219
F-87.057605168925164
tp175
a(F81.223740002610455
F-137.1196471011811
tp176
a(F25.607582576631231
F-145.57363291274129
tp177
a(F-23.30133613461804
F-135.09315033175932
tp178
a(F-85.310858072094817
F-88.804352265755483
tp179
a(F-109.76531742771947
F-25.048083231448373
tp180
a(F-92.18470516457441
F38.821327097700504
tp181
a(F-59.983025168055008
F77.136621933126094
tp182
a(F-34.655192264015213
F57.049030319577241
tp183
a(F15.240241290490999
F91.136148389061646
tp184
a(F45.695174190180083
F109.45144322448726
tp185
a(F100.71770774033554
F94.604092901429397
tp186
a(F130.4124083864512
F66.656139352144066
tp187
a(F154.89241742336873
F29.21421806513365
tp188
asg4
F0
sg5
(F123.14567032653842
F161.57410645680574
tp189
sg73
I01
sg7
(F1
F1
tp190
ssg37
(dp191
g52
(lp192
(F136.52602322535728
F-55.616157425979111
tp193
a(F102.46445483716582
F-102.77832904039806
tp194
a(F14.84735032305781
F-129.25928516544454
tp195
a(F-60.856398716470224
F-108.0185703308891
tp196
a(F-107.14519678247404
F-65.223266458545936
tp197
a(F-126.35941484760767
F-14.567600650466289
tp198
a(F-121.8794058106901
F50.175183227097648
tp199
a(F-77.45049613635841
F118.18517870863892
tp200
a(F6.5065058063393337
F134.8048258098199
tp201
a(F105.95794903082648
F110.32481677290241
tp202
a(F140.89289096743312
F66.656139352144152
tp203
a(F152.27229677812323
F10
tp204
asg4
F0
sg5
(F142.35988839167214
F141.48651484325686
tp205
sg73
I01
sg7
(F1
F1
tp206
ssg41
(dp207
g52
(lp208
(F138.74632061051815
F99.844334191920382
tp209
a(F153.59367093357602
F57.04903031957727
tp210
a(F156.2137915788214
F4.646617414667304
tp211
a(F131.75933222319688
F-53.86941032914882
tp212
a(F110.79836706123285
F-76.577122587943165
tp213
a(F95.951016738175042
F-75.703749039527963
tp214
a(F65.382942543644219
F-87.930978717340338
tp215
a(F42.675230284849903
F-79.197243233188658
tp216
a(F28.701253510207238
F-90.55109936258583
tp217
a(F16.474023832394892
F-108.01857033088913
tp218
a(F-23.701159394702728
F-106.27182323405879
tp219
a(F-58.516027743816124
F-87.337354841516628
tp220
a(F-90.950922622670532
F-59.983025168054951
tp221
a(F-118.02550262354066
F-19.807841940957331
tp222
a(F-123.26574391403167
F70.149633545804761
tp223
a(F-89.134262910893213
F125.28530839080193
tp224
a(F-56.015980686063884
F150.50000000000006
tp225
a(F-5.3603148779842797
F172.3343387103792
tp226
a(F34.454459355624635
F170.61314129484174
tp227
a(F78.035545162834154
F127.03205548763225
tp228
asg4
F0
sg5
(F138.39284390968092
F121.39892322970809
tp229
sg73
I01
sg7
(F1
F1
tp230
ssg46
(dp231
g52
(lp232
(F112.94493741814794
F1.1531232210060693
tp233
a(F73.64312773946547
F-9.327359359975901
tp234
a(F57.049030319577312
F10.760232253572951
tp235
a(F31.721197415537475
F-9.327359359975901
tp236
a(F-16.594097419888172
F4.3668677420758399
tp237
a(F-63.47651936171566
F44.821800641764383
tp238
a(F-90.437958067744148
F104.32434322883796
tp239
a(F-83.564110975264484
F163.60060322622698
tp240
a(F-33.781818715600096
F225.61012516370437
tp241
a(F3.773243866252173
F250.93795806774355
tp242
a(F59.669150964822776
F253.5580787129891
tp243
a(F117.31180516022378
F236.0906077446858
tp244
a(F140.89289096743329
F199.40891871124879
tp245
a(F104.21120193399629
F174.08108580720898
tp246
a(F120.80529935388445
F161.85385612939666
tp247
a(F126.04554064437538
F141.76626451584841
tp248
a(F130.52554968129289
F102.49000451845879
tp249
a(F166.2462735527659
F50.175183227097648
tp250
asg4
F0
sg5
(F109.17169355189576
F27.947953549285245
tp251
sg73
I01
sg7
(F1
F1
tp252
sst.