((dp1
S'cam_110bL'
p2
(dp3
S'angle'
p4
F0
sS'pos'
p5
(F14.759758709509015
F148.38591161702942
tp6
sS'size'
p7
(F140.59693641118417
F137.03205548763225
tp8
ssS'cam_115bL'
p9
(dp10
g4
F0
sg5
(F0.65526829877950377
F12.139638064263522
tp11
sg7
(F281.13869097613463
F276.77182323405884
tp12
ssS'cam_111bL'
p13
(dp14
g4
F0
sg5
(F20
F20
tp15
sg7
(F276.77182323405884
F273.27832904039815
tp16
ssS'cam_109bL'
p17
(dp18
g4
F0
sg5
(F7.7727703221877391
F11.266264515848349
tp19
sg7
(F276.77182323405879
F255.81085807209487
tp20
ssS'cam_116L'
p21
(dp22
g4
F0
sg5
(F20
F20
tp23
sg7
(F274.15170258881335
F277.64519678247393
tp24
ssS'cam_117L'
p25
(dp26
g4
F0
sg5
(F137.03205548763216
F5.1526496769421897
tp27
sg7
(F150.13265871385977
F287.25230581504087
tp28
ssS'cam_119L'
p29
(dp30
g4
F0
sg5
(F15.633132257924217
F5.4756978179195812
tp31
sg7
(F277.64519678247404
F289.49250516259315
tp32
ssS'cam_114bL'
p33
(dp34
g4
F0
sg5
(F19.126626451584912
F14.759758709509015
tp35
sg7
(F277.64519678247404
F274.15170258881335
tp36
ssS'cam_113L'
p37
(dp38
g4
F0
sg5
(F20
F14.756279332874954
tp39
sg7
(F271.86560210043956
F261.21115068775231
tp40
ssS'cam_118L'
p41
(dp42
g4
F0
sg5
(F12.139638064263522
F12.139638064263522
tp43
sg7
(F262.79784645941618
F274.15170258881335
tp44
ssS'cam_112bL'
p45
(dp46
g4
F0
sg5
(F15.153318538298038
F8.6386052212289997
tp47
sg7
(F282.64672161872619
F272.57254546652325
tp48
ss(dp49
g2
(dp50
S'points'
p51
(lp52
(F292.06361483890618
F174.95445935562466
tp53
a(F280.3576924851813
F195.35391665218953
tp54
a(F249.52872006200502
F218.84776161075763
tp55
a(F207.9900305977946
F256.90721109333816
tp56
a(F187.24450342688192
F275.69165118257615
tp57
a(F141.93474830101809
F284.6139960293383
tp58
a(F103.07734311807663
F271.92137645018204
tp59
a(F68.369320155860223
F243.16681531335436
tp60
a(F36.615521689572063
F204.48659180588965
tp61
a(F28.251217583498413
F160.56710757571312
tp62
a(F30.871338228743891
F128.20566274647462
tp63
a(F42.729136528478207
F88.653046258373877
tp64
a(F58.762211123293298
F63.946799525551853
tp65
a(F74.256016020376038
F45.672720969706177
tp66
a(F117.48028894539337
F35.600222035795412
tp67
a(F147.94269374819942
F23.561601720593501
tp68
a(F196.63617446839734
F34.485679874095013
tp69
a(F247.78197296517462
F66.431514517769301
tp70
a(F274.24407764627517
F104.77270979939527
tp71
a(F286.82337354841519
F134.77927612852699
tp72
asS'angle'
p73
F0
sS'pos'
p74
(F0
F0
tp75
sS'closed'
p76
I01
sS'size'
p77
(F1
F1
tp78
ssg9
(dp79
S'points'
p80
(lp81
(F267.44394971410748
F143.51301161267867
tp82
a(F256.57993314324085
F201.46753149109571
tp83
a(F236.23931024243586
F212.7341467718515
tp84
a(F199.02815381335495
F251.66696980284718
tp85
a(F167.04677463388373
F263.46442150476389
tp86
a(F133.16167810992022
F283.74062248092321
tp87
a(F96.090354730755308
F274.54149709542753
tp88
a(F58.795777416407546
F250.06458451932889
tp89
a(F48.281728542311399
F210.85199402199322
tp90
a(F24.73420902821606
F211.63614838906159
tp91
a(F39.581559351273896
F202.02903935649482
tp92
a(F33.467944512367737
F187.18168903343695
tp93
a(F14.781182979192909
F194.00610922490762
tp94
a(F5.5435053247040962
F136.9860217685036
tp95
a(F19.517482099346733
F94.144094358283127
tp96
a(F40.109015883232715
F57.211598515427852
tp97
a(F80.270613623185596
F81.503489675201934
tp98
a(F86.08066630722989
F46.47932855724855
tp99
a(F92.565392771537617
F22.965008710911832
tp100
a(F139.31462765577254
F15.512630422246559
tp101
a(F183.75100923322123
F19.194733978517689
tp102
a(F224.5841280176827
F37.105800519340477
tp103
a(F252.10163905891505
F69.925008711429939
tp104
a(F272.44226195972016
F105.64608334781042
tp105
a(F275.3751141223471
F131.28578193486632
tp106
asg4
F0
sg5
(F-0.87337354841515946
F-0.87337354841505999
tp107
sS'closed'
p108
I01
sg7
(F1
F1
tp109
ssg13
(dp110
g51
(lp111
(F292.06361483890618
F142.63963806426352
tp112
a(F285.59793377567235
F182.25331342596203
tp113
a(F272.77229677812329
F216.87638967955266
tp114
a(F262.62932328823257
F238.93535322430648
tp115
a(F233.47048709944076
F249.1912109709138
tp116
a(F190.52255962949127
F283.98179109420835
tp117
a(F133.96871697355678
F282.67863956989748
tp118
a(F86.912214750862631
F265.39977796420465
tp119
a(F76.876136665621644
F243.97342290089671
tp120
a(F52.648596284387224
F223.07922369980554
tp121
a(F33.99540104432657
F173.91851761135882
tp122
a(F26.50447048666808
F162.31385467254344
tp123
a(F29.124591131913565
F139.55951887587179
tp124
a(F50.589498464214699
F114.85425271082886
tp125
a(F60.508958220123631
F84.907764687515851
tp126
a(F87.356619246603529
F55.279830002273002
tp127
a(F144.55486894626353
F33.853474938965064
tp128
a(F182.00426213639088
F35.788831398405819
tp129
a(F218.47051317877649
F44.092788906661838
tp130
a(F253.0222142556656
F62.938020324108606
tp131
a(F274.24407764627517
F88.178612379507115
tp132
a(F288.57012064524548
F114.69168451497816
tp133
asg73
F0
sg74
(F0
F0
tp134
sg76
I01
sg77
(F1
F1
tp135
ssg17
(dp136
g51
(lp137
(F277.21626451584831
F153.12012064524549
tp138
a(F269.00383635578419
F200.59415794268054
tp139
a(F242.54173167468369
F228.45487064332448
tp140
a(F204.49653640413393
F250.79359625443203
tp141
a(F166.28353826491792
F259.9709273111032
tp142
a(F123.59390378429961
F255.79266893163779
tp143
a(F79.496257310867136
F245.72016999772706
tp144
a(F33.434378219253574
F210.85199402199322
tp145
a(F34.86877459274173
F185.272373740756
tp146
a(F24.757723389837746
F152.70674563997662
tp147
a(F9.9103730667799077
F144.79976016636277
tp148
a(F13.380352898818916
F115.56505806339339
tp149
a(F27.008412657005213
F84.286178516298037
tp150
a(F51.775222735971965
F50.84619629932439
tp151
a(F90.850113440264195
F24.711755807742179
tp152
a(F139.31462765577254
F15.512630422246559
tp153
a(F160.16992342601174
F20.941481075348008
tp154
a(F216.72376608194617
F45.839536003492185
tp155
a(F241.66835812626843
F71.671755808260286
tp156
a(F264.63696861370835
F106.51945689622559
tp157
a(F271.10264967694218
F129.539034838036
tp158
asg73
F0
sg74
(F0
F0
tp159
sg76
I01
sg77
(F1
F1
tp160
ssg21
(dp161
g80
(lp162
(F285.94999999999999
F150.5
tp163
a(F278.61094538835096
F194.48054310377438
tp164
a(F275.39241742336878
F214.25626903430714
tp165
a(F257.38908199774153
F233.6951119338155
tp166
a(F224.58412801768273
F263.89419948065949
tp167
a(F194.23149181420322
F287.91888086038847
tp168
a(F139.3146276557726
F293.34773151348992
tp169
a(F82.116377956112643
F274.54149709542753
tp170
a(F51.775222735972065
F249.28043015226052
tp171
a(F31.375280399081067
F214.96707438687164
tp172
a(F22.137602744592254
F181.52807273767709
tp173
a(F28.251217583498399
F124.71216855281395
tp174
a(F50.589498464214699
F91.273166903619369
tp175
a(F62.255705316953964
F59.579931783476013
tp176
a(F85.609872149773196
F42.179226776045482
tp177
a(F134.07438636528153
F36.473595584210557
tp178
a(F176.76402084589989
F41.902446237312006
tp179
a(F185.2823183390002
F33.61230632567981
tp180
a(F239.92161102943814
F75.165250001920924
tp181
a(F258.52335377480216
F88.178612379507115
tp182
a(F273.72277032218767
F137.39939677377248
tp183
asg4
F0
sg5
(F0
F0
tp184
sg108
I01
sg7
(F1
F1
tp185
ssg25
(dp186
g80
(lp187
(F278.96301161267866
F188.05506258185216
tp188
a(F260.27010087163251
F208.45451987841705
tp189
a(F214.59377812539839
F248.54246225687331
tp190
a(F208.86340414620977
F265.64094657748984
tp191
a(F183.75100923322125
F281.80526602148234
tp192
a(F140.18800120418777
F281.9938753840928
tp193
a(F98.710475376000787
F270.17462935335169
tp194
a(F58.762211123293397
F250.1538037006757
tp195
a(F31.375280399081067
F214.96707438687164
tp196
a(F16.897361454101254
F172.79433725352544
tp197
a(F11.657120163610241
F121.21867435915328
tp198
a(F31.375280399081049
F86.032925613128384
tp199
a(F52.648596284387139
F49.972822750909188
tp200
a(F94.343607633924861
F19.471514517251194
tp201
a(F136.69450701052702
F8.5256420349252267
tp202
a(F186.37112987846672
F11.334372042781183
tp203
a(F224.58412801768267
F36.23242697092536
tp204
a(F245.69771677725308
F70.149633545804761
tp205
a(F247.78197296517462
F88.265853228148416
tp206
a(F256.77660667797187
F110.01295108988626
tp207
a(F283.3298793547545
F140.89289096743315
tp208
asg4
F0
sg5
(F0
F0
tp209
sg108
I01
sg7
(F1
F1
tp210
ssg29
(dp211
g80
(lp212
(F290.31686774207583
F145.25975870950901
tp213
a(F285.59793377567235
F187.49355471645305
tp214
a(F265.24944393347806
F231.07499128856998
tp215
a(F234.34386064785596
F264.03856129397161
tp216
a(F224.58412801768273
F263.89419948065949
tp217
a(F183.75100923322125
F281.80526602148234
tp218
a(F172.50282249554891
F288.98086377141402
tp219
a(F129.53903483803597
F291.1131412948418
tp220
a(F92.596860537094642
F278.03499128908817
tp221
a(F58.762211123293383
F258.01416563641214
tp222
a(F25.261665560174901
F221.08068922577777
tp223
a(F12.530493712025422
F178.03457854401643
tp224
a(F16.897361454101237
F128.20566274647462
tp225
a(F24.38829201175972
F94.766661097280036
tp226
a(F69.242693704275297
F56.959811138230521
tp227
a(F117.05131989271919
F16.851393872005644
tp228
a(F148.37174100874111
F11.768279860102496
tp229
a(F160.59897068655346
F23.122135989499668
tp230
a(F153.28860443041518
F37.346969132625702
tp231
a(F168.45933262228993
F52.816836635615289
tp232
a(F200.34510665310941
F32.295337204745181
tp233
a(F222.83738092085233
F47.586283100322476
tp234
a(F249.19121097091377
F44.821800641764924
tp235
a(F275.72992651445998
F85.645732582902923
tp236
a(F289.09142796933298
F115.25319238037724
tp237
a(F265.86240838645119
F136.52602322535733
tp238
asg4
F0
sg5
(F1.2548854428436869
F1.6120730387164599
tp239
sg108
I01
sg7
(F1
F1
tp240
ssg33
(dp241
g80
(lp242
(F280.709758709509
F123.35797616548859
tp243
a(F268.13046280736899
F176.09401082878279
tp244
a(F257.38908199774153
F233.6951119338155
tp245
a(F224.58412801768273
F263.89419948065949
tp246
a(F183.75100923322125
F281.80526602148234
tp247
a(F141.06137475260292
F281.98517295394555
tp248
a(F99.58384892441596
F259.65716144424385
tp249
a(F67.495946607445049
F246.65160707686778
tp250
a(F32.248653947496237
F193.9538946440241
tp251
a(F33.491458873989416
F174.54543556542939
tp252
a(F43.971941454971372
F149.21884248932213
tp253
a(F32.248653947496223
F128.93483425477541
tp254
a(F34.307751767668648
F99.876949032635224
tp255
a(F43.687941825845229
F76.364804793835333
tp256
a(F87.78558829927772
F42.654654256757908
tp257
a(F145.3225731029539
F14.81698819875777
tp258
a(F190.52255962949118
F16.092620776492936
tp259
a(F230.31450199687129
F59.424945662616608
tp260
a(F253.28311248431115
F84.63072799742605
tp261
a(F264.11566128962085
F111.97583713811284
tp262
asg4
F0
sg5
(F0
F0
tp263
sg108
I01
sg7
(F1
F1
tp264
ssg37
(dp265
g80
(lp266
(F285.94999999999999
F150.5
tp267
a(F278.61094538835096
F194.48054310377438
tp268
a(F255.64233490091121
F230.2016177401548
tp269
a(F214.97701898511593
F264.7675730290747
tp270
a(F182.87763568480608
F270.45140989208517
tp271
a(F142.80812184943326
F255.79266893163779
tp272
a(F92.596860537094628
F226.50595193259338
tp273
a(F68.369320155860208
F249.28043015226052
tp274
a(F38.362268786402382
F211.47358019321098
tp275
a(F23.884349841422587
F165.80734886620411
tp276
a(F23.010976293007399
F125.58554210122912
tp277
a(F37.488895237987222
F86.032925613128384
tp278
a(F68.369320155860123
F54.339690492985028
tp279
a(F96.963728279170368
F34.318864840309004
tp280
a(F139.31462765577254
F15.512630422246559
tp281
a(F179.38414149114539
F21.81485462376321
tp282
a(F224.5841280176827
F37.105800519340477
tp283
a(F256.51570844932633
F70.798382259845113
tp284
a(F278.61094538835096
F106.51945689622558
tp285
a(F285.94999999999999
F150.49999999999997
tp286
asg4
F0
sg5
(F0
F0
tp287
sg108
I01
sg7
(F1
F1
tp288
ssg41
(dp289
g80
(lp290
(F239.66120193399618
F193.29530387234314
tp291
a(F222.99000451845879
F181.94144774294602
tp292
a(F209.61443506355283
F195.35391665218953
tp293
a(F252.14884070725051
F237.18860612747613
tp294
a(F218.4705131787766
F259.52733173858371
tp295
a(F180.25751503956059
F273.07153053733066
tp296
a(F139.3146276557726
F277.62700764201696
tp297
a(F100.45722247283112
F263.18764096603036
tp298
a(F62.25570531695405
F241.42006821652404
tp299
a(F35.742148141156903
F206.23333890271996
tp300
a(F17.770735002516421
F156.20023983363728
tp301
a(F29.124591131913565
F115.10505952024712
tp302
a(F39.235642334817555
F90.399793355204224
tp303
a(F64.002452413784297
F50.84619629932439
tp304
a(F91.110598707768702
F25.607582576631273
tp305
a(F147.61939408724999
F14.231273226760152
tp306
a(F161.14896636615168
F35.600222035795412
tp307
a(F182.87763568480602
F14.827866236441935
tp308
a(F224.58412801768267
F33.61230632567981
tp309
a(F250.06458451932892
F54.428909674331749
tp310
a(F265.24944393347795
F82.152238389242257
tp311
a(F238.43576216125334
F131.8472898002654
tp312
a(F231.80083999825968
F158.36036193573648
tp313
asg4
F0
sg5
(F0
F0
tp314
sg108
I01
sg7
(F1
F1
tp315
ssg45
(dp316
g51
(lp317
(F286.82337354841519
F175.82783290403984
tp318
a(F275.11745119469032
F211.07464052366254
tp319
a(F251.27546715883537
F245.92234161162781
tp320
a(F218.4705131787766
F260.40070528699886
tp321
a(F169.71421806513365
F278.88591161702948
tp322
a(F136.58883761880227
F274.81827763416101
tp323
a(F99.844334191920368
F274.51904387495364
tp324
a(F95.645950235014297
F261.90628377054395
tp325
a(F82.116377956112643
F265.80776161127585
tp326
a(F58.762211123293383
F248.40705660384538
tp327
a(F31.375280399081067
F214.96707438687164
tp328
a(F16.897361454101254
F172.79433725352544
tp329
a(F16.897361454101237
F128.20566274647462
tp330
a(F31.375280399081049
F86.032925613128384
tp331
a(F58.762211123293312
F50.846196299324362
tp332
a(F76.876136665621544
F30.82537064664831
tp333
a(F127.96077152637537
F12.019136228585921
tp334
a(F167.15691181333307
F10.460998494366038
tp335
a(F227.20424866292817
F28.372065035188825
tp336
a(F253.89558780408075
F52.457537743126636
tp337
a(F276.86419829152067
F91.672106573167781
tp338
a(F289.44349419366068
F128.66566128962083
tp339
asg73
F0
sg74
(F0
F0
tp340
sg76
I01
sg77
(F1
F1
tp341
ss(dp342
g2
(L301L
L301L
tp343
sg9
(L301L
L301L
tp344
sg13
(L301L
L301L
tp345
sg17
(L301L
L301L
tp346
sg21
(L301L
L301L
tp347
sg25
(L301L
L301L
tp348
sg29
(L301L
L301L
tp349
sg33
(L301L
L301L
tp350
sg37
(L301L
L301L
tp351
sg41
(L301L
L301L
tp352
sg45
(L301L
L301L
tp353
st.