((dp1
S'115'
p2
(dp3
S'angle'
p4
F0
sS'pos'
p5
(F179.82735935997542
F17.379879354754451
tp6
sS'size'
p7
(F101.22374000261047
F244.45700194269767
tp8
ssS'109'
p9
(dp10
g4
F0
sg5
(F13.013011612678682
F18.253252903169681
tp11
sg7
(F94.236751615289094
F110.83084903517727
tp12
ssS'120'
p13
(dp14
g4
F0
sg5
(F20
F20
tp15
sg7
(F262.79784645941618
F265.74683741054361
tp16
ssS'114'
p17
(dp18
g4
F0
sg5
(F33.100603226227506
F26.11361483890613
tp19
sg7
(F240.96350774903703
F257.55760516892519
tp20
ssS'117'
p21
(dp22
g4
F0
sg5
(F220.87591613548813
F39.21421806513365
tp23
sg7
(F68.908918711249299
F175.46049161789955
tp24
ssS'116'
p25
(dp26
g4
F0
sg5
(F29.607109032566832
F30.48048258098197
tp27
sg7
(F255.8108580720949
F262.79784645941618
tp28
ssS'111'
p29
(dp30
g4
F0
sg5
(F33.100603226227499
F40.960965161963998
tp31
sg7
(F258.44399657991465
F253.14524110036092
tp32
ssS'110'
p33
(dp34
g4
F0
sg5
(F11.266264515848341
F199.04157742510907
tp35
sg7
(F82.009521937476791
F82.009521937476819
tp36
ssS'113'
p37
(dp38
g4
F0
sg5
(F20
F20
tp39
sg7
(F264.54459355624647
F253.53223695589645
tp40
ssS'119'
p41
(dp42
g4
F0
sg5
(F20
F20
tp43
sg7
(F149.2592851654446
F279.39194387930434
tp44
ss(dp45
g2
(dp46
S'points'
p47
(lp48
(F277.21626451584837
F147.00650580633931
tp49
a(F270.75058345261448
F192.733796006944
tp50
a(F260.00920264298702
F217.97438806234243
tp51
a(F246.57109032566831
F211.63614838906165
tp52
a(F208.86340414620975
F252.54034335126232
tp53
a(F175.89064729748475
F272.19815698891546
tp54
a(F127.96077152637544
F282.86724893250789
tp55
a(F96.090354730755308
F274.54149709542753
tp56
a(F61.38233176853889
F241.42006821652399
tp57
a(F31.375280399081067
F214.96707438687164
tp58
a(F16.897361454101254
F172.79433725352544
tp59
a(F16.897361454101237
F128.20566274647462
tp60
a(F31.375280399081049
F86.032925613128384
tp61
a(F49.155102090726473
F60.453305331891158
tp62
a(F78.883369029956356
F83.250236772032196
tp63
a(F90.237225159353514
F73.64312773946537
tp64
a(F96.090354730755223
F26.458502904572491
tp65
a(F139.31462765577254
F15.512630422246559
tp66
a(F183.75100923322123
F19.194733978517689
tp67
a(F224.5841280176827
F37.105800519340477
tp68
a(F257.38908199774147
F67.304888066184461
tp69
a(F278.61094538835096
F106.51945689622558
tp70
a(F281.58313225792421
F138.27277032218763
tp71
asg4
F0
sg5
(F-7.8603619357364778
F-1.7467470968303758
tp72
sS'closed'
p73
I01
sg7
(F1
F1
tp74
ssg9
(dp75
g47
(lp76
(F278.08963806426351
F153.12012064524549
tp77
a(F273.37070409786003
F197.10066374901987
tp78
a(F246.90859941675953
F223.21462935283347
tp79
a(F217.59713963036143
F245.55335496394102
tp80
a(F182.87763568480608
F258.22418021427285
tp81
a(F140.18800120418777
F261.03291022212881
tp82
a(F86.483245698188469
F249.21366419138769
tp83
a(F29.940884025592911
F208.23187337674773
tp84
a(F34.86877459274173
F195.75285632173797
tp85
a(F25.631096938252913
F161.4404811241283
tp86
a(F6.3933645114975839
F147.87987935475454
tp87
a(F9.0369995183647411
F126.4589156496443
tp88
a(F25.261665560174887
F79.045937225807052
tp89
a(F56.142090478047805
F45.605955008833348
tp90
a(F108.57806967607203
F17.747220640894795
tp91
a(F117.05131989271919
F28.205250001402817
tp92
a(F131.45426572003603
F16.386003970661761
tp93
a(F168.03028536174824
F22.688228172178356
tp94
a(F221.09063382402201
F46.71290955190733
tp95
a(F245.16185231992912
F73.418502905090605
tp96
a(F267.25708925895384
F109.13957754147108
tp97
a(F273.72277032218767
F130.41240838645115
tp98
asg4
F0
sg5
(F0
F0
tp99
sg73
I01
sg7
(F1
F1
tp100
ssg13
(dp101
g47
(lp102
(F275.46951741901796
F151.37337354841517
tp103
a(F278.61094538835096
F194.48054310377438
tp104
a(F249.52872006200502
F238.06197967589131
tp105
a(F219.34388672719177
F258.65395819016851
tp106
a(F178.51076794273024
F273.94490408574586
tp107
a(F138.44125410735742
F277.62700764201696
tp108
a(F117.31180516022368
F258.79832000348063
tp109
a(F89.976739891849135
F261.44089386920001
tp110
a(F61.400876659957063
F244.91356241018468
tp111
a(F57.025851067461161
F222.11663097004367
tp112
a(F35.773056293520497
F210.6002066447958
tp113
a(F17.770735002516414
F171.04759015669509
tp114
a(F23.884349841422566
F137.81277177904144
tp115
a(F27.00841265700522
F113.10750561399851
tp116
a(F53.555536125916561
F77.136621933126008
tp117
a(F52.648596284387139
F61.32667888030636
tp118
a(F96.963728279170368
F31.698744195063512
tp119
a(F134.07438636528153
F23.372992357983094
tp120
a(F188.99125052371221
F24.434975269008703
tp121
a(F246.41846672806182
F62.433633423380343
tp122
a(F264.3760703850628
F75.165250001920924
tp123
a(F278.61094538835096
F106.51945689622558
tp124
a(F282.45650580633935
F128.66566128962083
tp125
asg4
F0
sg5
(F-0.87337354841517367
F5.6843418860808015e-14
tp126
sg73
I01
sg7
(F1
F1
tp127
ssg17
(dp128
g47
(lp129
(F276.34289096743316
F162.72722967781235
tp130
a(F262.01684796846286
F206.7077727815867
tp131
a(F257.38908199774153
F233.6951119338155
tp132
a(F221.96400737243727
F264.7675730290747
tp133
a(F183.75100923322125
F281.80526602148234
tp134
a(F139.3146276557726
F285.48736957775344
tp135
a(F81.24300440769747
F257.94739967553937
tp136
a(F50.901849187556891
F229.1928385387117
tp137
a(F40.109015883232729
F227.19430406468396
tp138
a(F34.364832422404575
F183.27481983450744
tp139
a(F41.351820809725879
F151.78674855368411
tp140
a(F32.248653947496223
F98.260155290940702
tp141
a(F50.028475639141647
F65.6935466223822
tp142
a(F67.529512900559212
F64.909392255313776
tp143
a(F81.24300440769737
F43.925973872875829
tp144
a(F103.33782838558102
F30.847823867122258
tp145
a(F139.31462765577254
F15.512630422246559
tp146
a(F191.6113711689577
F20.068107526932863
tp147
a(F218.47051317877649
F45.839536003492185
tp148
a(F251.81133161615926
F83.250236772032252
tp149
a(F260.88257619140211
F110.10019193852759
tp150
a(F279.48431893676616
F122.24018076769858
tp151
a(F281.58313225792415
F140.019517419018
tp152
asg4
F0
sg5
(F0
F0
tp153
sg73
I01
sg7
(F1
F1
tp154
ssg21
(dp155
g47
(lp156
(F288.57012064524554
F165.34735032305784
tp157
a(F278.61094538835096
F194.48054310377438
tp158
a(F268.40542903604739
F212.50952193747682
tp159
a(F260.00920264298702
F213.60752032026664
tp160
a(F215.12964258272228
F254.43145226140473
tp161
a(F216.72376608194625
F266.51432012590499
tp162
a(F183.75100923322125
F281.80526602148234
tp163
a(F139.3146276557726
F285.48736957775344
tp164
a(F96.090354730755308
F274.54149709542753
tp165
a(F58.762211123293397
F250.1538037006757
tp166
a(F31.375280399081067
F214.96707438687164
tp167
a(F16.897361454101254
F172.79433725352544
tp168
a(F16.897361454101237
F128.20566274647462
tp169
a(F31.375280399081049
F86.032925613128384
tp170
a(F58.762211123293312
F50.846196299324362
tp171
a(F84.996983868862543
F29.974450318707113
tp172
a(F95.216981182340049
F24.711755807742179
tp173
a(F144.55486894626353
F7.6522684865100814
tp174
a(F179.38414149114539
F12.207745591196328
tp175
a(F233.31786350183438
F34.485679874095013
tp176
a(F233.47048709944079
F50.935415480671111
tp177
a(F254.76896135249598
F90.885973873393908
tp178
a(F265.51034216212349
F116.12656592879242
tp179
a(F283.25277935910526
F133.0325290316967
tp180
a(F286.82337354841525
F143.51301161267864
tp181
asg4
F0
sg5
(F-6.1136148389061589
F-2.620120645245521
tp182
sg73
I01
sg7
(F1
F1
tp183
ssg25
(dp184
g47
(lp185
(F285.94999999999999
F150.5
tp186
a(F278.61094538835096
F194.48054310377438
tp187
a(F257.38908199774153
F233.6951119338155
tp188
a(F224.58412801768273
F263.89419948065949
tp189
a(F183.75100923322125
F281.80526602148234
tp190
a(F139.3146276557726
F285.48736957775344
tp191
a(F96.090354730755308
F274.54149709542753
tp192
a(F58.762211123293397
F250.1538037006757
tp193
a(F37.556120989257906
F214.09370083845647
tp194
a(F23.961179271446223
F172.79433725352544
tp195
a(F27.493088180118679
F128.20566274647462
tp196
a(F52.566733851115956
F81.666057871052544
tp197
a(F64.943051713470169
F56.086437589815375
tp198
a(F96.090354730755223
F36.938985485554497
tp199
a(F139.31462765577254
F26.866486551643732
tp200
a(F181.10207755171686
F25.308348817423848
tp201
a(F219.28626465467397
F46.71290955190733
tp202
a(F253.85717308906897
F72.545129356675432
tp203
a(F271.54712757100594
F109.13957754147108
tp204
a(F285.94999999999999
F150.49999999999997
tp205
asg4
F0
sg5
(F-2.6489316815043651
F6.9869883873213325
tp206
sg73
I01
sg7
(F1
F1
tp207
ssg29
(dp208
g47
(lp209
(F288.57012064524548
F160.10710903256683
tp210
a(F278.61094538835096
F194.48054310377438
tp211
a(F257.38908199774153
F233.6951119338155
tp212
a(F225.45750156609793
F257.78058464175336
tp213
a(F184.6243827816364
F286.17213376355818
tp214
a(F139.3146276557726
F285.48736957775344
tp215
a(F96.963728279170468
F272.79474999859718
tp216
a(F82.343296930502873
F256.26741853958185
tp217
a(F52.336245561045047
F221.0806892257778
tp218
a(F33.491458873989416
F192.00855531865909
tp219
a(F28.251217583498399
F165.76072532832677
tp220
a(F23.860835479800908
F157.48698838732136
tp221
a(F41.855762980063048
F130.57497658230184
tp222
a(F50.062041932255894
F106.83132257924171
tp223
a(F61.382331768538805
F82.28764404227033
tp224
a(F82.989751504527703
F57.899950647518438
tp225
a(F125.34065088112986
F42.587210423116687
tp226
a(F168.03028536174827
F30.548590107914833
tp227
a(F217.59713963036134
F42.34604180983149
tp228
a(F257.38908199774147
F67.304888066184461
tp229
a(F278.61094538835096
F106.51945689622558
tp230
a(F286.82337354841519
F131.28578193486632
tp231
asg4
F0
sg5
(F-1.7467470968303473
F0.72107625410691867
tp232
sg73
I01
sg7
(F1
F1
tp233
ssg33
(dp234
g47
(lp235
(F284.20325290316964
F154.86686774207584
tp236
a(F274.24407764627517
F191.86042245852886
tp237
a(F257.38908199774158
F219.72113515917283
tp238
a(F248.16521382489222
F221.97226915673156
tp239
a(F183.75100923322125
F281.80526602148234
tp240
a(F139.3146276557726
F285.48736957775344
tp241
a(F79.496257310867136
F260.56752032078487
tp242
a(F61.38233176853889
F240.54669466810887
tp243
a(F37.488895237987236
F207.10671245113514
tp244
a(F26.50447048666808
F168.4274695114496
tp245
a(F29.997964680328725
F130.82578339172011
tp246
a(F44.475883625308541
F86.032925613128384
tp247
a(F75.356308543181456
F45.605955008833348
tp248
a(F106.57083731173719
F42.179226776045482
tp249
a(F141.06137475260286
F23.372992357983094
tp250
a(F175.01727374906955
F26.181722365838993
tp251
a(F216.72376608194617
F42.34604180983149
tp252
a(F252.14884070725046
F70.798382259845113
tp253
a(F278.61094538835096
F106.51945689622558
tp254
a(F288.57012064524548
F136.52602322535733
tp255
asg4
F0
sg5
(F0
F0
tp256
sg73
I01
sg7
(F1
F1
tp257
ssg37
(dp258
g47
(lp259
(F285.94999999999999
F150.5
tp260
a(F278.61094538835096
F194.48054310377438
tp261
a(F257.38908199774153
F233.6951119338155
tp262
a(F224.58412801768273
F263.89419948065949
tp263
a(F188.11787697529707
F269.57803634367002
tp264
a(F156.78209862407593
F266.27315151261979
tp265
a(F143.25252634517426
F252.70715838504836
tp266
a(F95.443900156730351
F227.44609144188138
tp267
a(F64.036018706898531
F257.92494645506542
tp268
a(F31.375280399081067
F214.96707438687164
tp269
a(F16.897361454101254
F172.79433725352544
tp270
a(F16.897361454101237
F128.20566274647462
tp271
a(F34.868774592741715
F87.779672709958703
tp272
a(F64.002452413784297
F56.086437589815375
tp273
a(F96.963728279170368
F32.572117743478657
tp274
a(F139.31462765577251
F18.132751067492052
tp275
a(F183.75100923322123
F19.194733978517689
tp276
a(F224.5841280176827
F37.105800519340477
tp277
a(F257.38908199774147
F67.304888066184461
tp278
a(F278.61094538835096
F106.51945689622558
tp279
a(F285.94999999999999
F150.49999999999997
tp280
asg4
F0
sg5
(F0
F0
tp281
sg73
I01
sg7
(F1
F1
tp282
ssg41
(dp283
g47
(lp284
(F289.44349419366063
F165.34735032305784
tp285
a(F278.61094538835096
F194.48054310377438
tp286
a(F257.38908199774153
F233.6951119338155
tp287
a(F224.58412801768273
F263.89419948065949
tp288
a(F183.75100923322125
F281.80526602148234
tp289
a(F139.3146276557726
F285.48736957775344
tp290
a(F96.090354730755308
F274.54149709542753
tp291
a(F58.762211123293397
F250.1538037006757
tp292
a(F31.375280399081067
F214.96707438687164
tp293
a(F16.897361454101254
F172.79433725352544
tp294
a(F16.897361454101237
F128.20566274647462
tp295
a(F32.248653947496223
F93.019914000449717
tp296
a(F65.749199510614631
F60.453305331891215
tp297
a(F94.343607633924876
F34.318864840309004
tp298
a(F120.10040959063889
F16.386003970661761
tp299
a(F188.99125052371224
F26.181722365838993
tp300
a(F224.5841280176827
F37.105800519340477
tp301
a(F247.78197296517465
F38.483560968483971
tp302
a(F282.10443958201165
F98.659094960489085
tp303
a(F288.57012064524554
F133.90590258011181
tp304
asg4
F0
sg5
(F-2.6489158845560894
F6.9869883873213041
tp305
sg73
I01
sg7
(F1
F1
tp306
ss(dp307
g2
(L301L
L301L
tp308
sg9
(L301L
L301L
tp309
sg13
(L301L
L301L
tp310
sg17
(L301L
L301L
tp311
sg21
(L301L
L301L
tp312
sg25
(L301L
L301L
tp313
sg29
(L301L
L301L
tp314
sg33
(L301L
L301L
tp315
sg37
(L301L
L301L
tp316
sg41
(L301L
L301L
tp317
st.