((dp1
S'cam_111L'
p2
(dp3
S'angle'
p4
F0
sS'pos'
p5
(F1.6591554832816087
F4.279276128527016
tp6
sS'size'
p7
(F296.8594148476077
F197.29483032827875
tp8
ssS'cam_110L'
p9
(dp10
g4
F0
sg5
(F2.5325290316966687
F149.25928516544457
tp11
sg7
(F143.14567032653841
F140.52554968129289
tp12
ssS'cam_121L'
p13
(dp14
g4
F0
sg5
(F144.31686363174333
F0.21792193217180511
tp15
sg7
(F151.44289507776568
F299.05816105615816
tp16
ssS'cam_120L'
p17
(dp18
g4
F0
sg5
(F11.266264515848263
F0.78578193486629289
tp19
sg7
(F286.37893226662572
F286.37893226662561
tp20
ssS'cam_114L'
p21
(dp22
g4
F0
sg5
(F13.013011612678611
F3.4059025801118423
tp23
sg7
(F283.75881162137989
F288.99905291187116
tp24
ssS'cam_123L'
p25
(dp26
g4
F0
sg5
(F13.886385161093926
F8.6461438706028275
tp27
sg7
(F279.39194387930434
F275.0250761372285
tp28
ssS'cam_119L'
p29
(dp30
g4
F0
sg5
(F13.886385161093813
F6.899396773772537
tp31
sg7
(F283.75881162138012
F284.63218516979532
tp32
ssS'cam_112L'
p33
(dp34
g4
F0
sg5
(F20
F20
tp35
sg7
(F275.89844968564364
F270.65820839515266
tp36
ssS'cam_116L'
p37
(dp38
g4
F0
sg5
(F18.253252903169653
F15.235983474954423
tp39
sg7
(F277.64519678247404
F282.29044324856568
tp40
ssS'cam_115L'
p41
(dp42
g4
F0
sg5
(F13.886385161093813
F0.78578193486634973
tp43
sg7
(F282.01206452454983
F297.73278839602278
tp44
ssS'cam_118L'
p45
(dp46
g4
F0
sg5
(F13.88638516109387
F6.0260232253573349
tp47
sg7
(F280.26531742771954
F274.15170258881329
tp48
ss(dp49
g2
(dp50
S'points'
p51
(lp52
(F261.49554064437535
F125.17216709596019
tp53
a(F249.78961829065048
F125.48403277897626
tp54
a(F242.90731158386268
F120.02033283841658
tp55
a(F213.70548807739627
F155.71145045743111
tp56
a(F215.00334689990589
F166.09432103750805
tp57
a(F207.86512337610301
F169.33896809378209
tp58
a(F220.84371160119917
F200.48757983401296
tp59
a(F230.5776527700213
F214.11509747036393
tp60
a(F233.82229982629539
F232.28512098549862
tp61
a(F209.36830556488562
F253.16299427145975
tp62
a(F176.54858285484863
F270.88118786798083
tp63
a(F137.82602986383756
F280.67417249894243
tp64
a(F109.61992700965695
F279.37375473884725
tp65
a(F109.1909579569828
F267.5545087081062
tp66
a(F91.857611097288668
F261.18560369200748
tp67
a(F95.302364766575607
F252.85532081923625
tp68
a(F79.728058896460183
F243.12137965041416
tp69
a(F59.279245083037878
F229.24352143447746
tp70
a(F47.281588333719725
F234.68529730410162
tp71
a(F36.898717753642771
F224.30242672402471
tp72
a(F20.026553061017729
F195.74953262881311
tp73
a(F20.142008510375298
F187.07078430113125
tp74
a(F22.622270706036971
F178.22843852493327
tp75
a(F28.06255313346206
F153.12023262292982
tp76
a(F7.1634202852790949
F151.56712155164777
tp77
a(F5.4181039488886817
F134.70263145723908
tp78
a(F16.967178411699557
F95.072679018536519
tp79
a(F59.893595101983081
F104.21120193399628
tp80
a(F47.666365424170763
F78.009995481541296
tp81
a(F33.692388649528105
F68.402886448974471
tp82
a(F60.508958220123645
F53.466316944569883
tp83
a(F87.356619246603543
F36.065611937139352
tp84
a(F101.75956507392036
F42.587210423116744
tp85
a(F110.38763116634726
F72.470520431842829
tp86
a(F118.90592865944757
F65.927127617040981
tp87
a(F109.67588736164748
F43.075053544934633
tp88
a(F121.14280844497554
F20.142716451765523
tp89
a(F147.2309499434997
F23.860835479800983
tp90
a(F199.63336284840966
F43.075053544934633
tp91
a(F236.68901506442302
F78.57150334694029
tp92
a(F248.39493741814789
F99.844334191920353
tp93
asS'angle'
p94
F0
sS'pos'
p95
(F0.64892941125480519
F-2.8421709430404007e-14
tp96
sS'closed'
p97
I01
sS'size'
p98
(F1
F1
tp99
ssg9
(dp100
g51
(lp101
(F278.88591161702942
F169.71421806513368
tp102
a(F267.53205548763231
F198.53554516283418
tp103
a(F252.76180516022364
F221.24325742162847
tp104
a(F247.16949764540502
F218.06162891098387
tp105
a(F203.23992199600124
F259.89631838627042
tp106
a(F203.62316285571876
F264.7675730290747
tp107
a(F179.38414149114541
F278.31177182782164
tp108
a(F139.3146276557726
F285.48736957775344
tp109
a(F135.75889406349157
F290.70832783659904
tp110
a(F114.62184688304902
F284.97624724529254
tp111
a(F96.963728279170468
F278.03499128908817
tp112
a(F65.782765803728878
F260.54506710031097
tp113
a(F61.38233176853889
F246.66030950701503
tp114
a(F33.122027495911396
F209.72683309638063
tp115
a(F20.390855647761921
F169.30084305986477
tp116
a(F17.933359786439642
F147.95692789743816
tp117
a(F23.884349841422566
F126.4589156496443
tp118
a(F35.742148141156889
F88.653046258373877
tp119
a(F54.428909674331706
F53.555536125916603
tp120
a(F70.916316909654654
F37.488739231299718
tp121
a(F82.488255580497082
F44.721200900576235
tp122
a(F101.55751499563644
F38.618966621512072
tp123
a(F117.05131989271919
F22.965008710911832
tp124
a(F171.62944894713368
F24.246365906398239
tp125
a(F206.45872149201554
F36.662204946821021
tp126
a(F233.3178635018343
F54.573271487643808
tp127
a(F259.13582909457182
F81.278864840827111
tp128
a(F275.99082474310552
F110.88632463830143
tp129
a(F283.3298793547545
F135.65264967694216
tp130
asg94
F0
sg95
(F0
F0
tp131
sg97
I01
sg98
(F1
F1
tp132
ssg13
(dp133
S'points'
p134
(lp135
(F285.94999999999999
F179.98540055729566
tp136
a(F278.61094538835101
F189.24030181328337
tp137
a(F243.41510522309889
F228.45487064332448
tp138
a(F225.61012516370428
F255.30482580981996
tp139
a(F219.49651032479812
F257.92494645506548
tp140
a(F210.61015124304009
F265.64094657748984
tp141
a(F196.78879806600381
F268.40542903604745
tp142
a(F182.81482129136114
F273.64567032653849
tp143
a(F171.46096516196397
F278.88591161702948
tp144
a(F163.60060322622749
F288.4930206495963
tp145
a(F163.66341761967243
F276.56502473099135
tp146
a(F151.37337354841517
F275.39241742336878
tp147
a(F135.65264967694216
F278.88591161702948
tp148
a(F125.17216709596016
F271.02554968129294
tp149
a(F113.98679475173279
F277.62700764201696
tp150
a(F97.542509714161056
F273.18985357312908
tp151
a(F102.78275100465204
F265.32949163739266
tp152
a(F94.343607633924961
F261.44089386920001
tp153
a(F79.20166519744258
F267.9496122826381
tp154
a(F57.888837574878224
F247.53368305543017
tp155
a(F32.912867131438787
F219.914067119804
tp156
a(F33.99540104432657
F211.47358019321095
tp157
a(F24.179131647287129
F207.68683744199166
tp158
a(F16.023987905686091
F176.28783144718608
tp159
a(F14.277240808855737
F123.83879500439878
tp160
a(F34.868774592741701
F79.045937225807052
tp161
a(F58.762211123293312
F50.846196299324362
tp162
a(F86.483245698188384
F26.45850290457247
tp163
a(F102.78275100465204
F23.405018726391575
tp164
a(F113.26323358563404
F13.797909693824749
tp165
a(F138.44125410735734
F12.019136228585921
tp166
a(F184.62438278163637
F11.334372042781183
tp167
a(F225.4575015660979
F29.245438583603971
tp168
a(F252.12962778364539
F52.226345824092135
tp169
a(F271.36305877238414
F80.405491292411909
tp170
a(F281.50393005606156
F105.55512867365536
tp171
a(F289.44349419366068
F133.90590258011181
tp172
asg4
F0
sg5
(F0
F0
tp173
sS'closed'
p174
I01
sg7
(F1
F1
tp175
ssg17
(dp176
g51
(lp177
(F287.6196471011811
F174.08108580720952
tp178
a(F281.58313225792415
F203.77578645332514
tp179
a(F269.00383635578419
F207.58114633000184
tp180
a(F257.38908199774153
F233.6951119338155
tp181
a(F227.20424866292825
F257.78058464175336
tp182
a(F193.35811826578808
F267.83128924683967
tp183
a(F154.16197797883041
F275.88026054518662
tp184
a(F136.36001935889757
F273.29921118824683
tp185
a(F129.11454956394155
F264.28740843135824
tp186
a(F112.73325815109598
F258.62073208702043
tp187
a(F104.6600902083169
F262.74070247146204
tp188
a(F95.477466449844528
F253.5580787129897
tp189
a(F76.932234638428071
F255.34523899071419
tp190
a(F58.48849000832044
F238.25702298048711
tp191
a(F64.328854709613722
F226.57629357790054
tp192
a(F51.999195895772353
F210.35305829653032
tp193
a(F43.704939212922454
F211.72242733059761
tp194
a(F35.127031203147297
F189.58731713637638
tp195
a(F23.386655566649349
F178.63470195481872
tp196
a(F16.672917316940886
F136.99302136620284
tp197
a(F28.637737090599199
F137.02403482473684
tp198
a(F30.584525324363621
F117.85380562493154
tp199
a(F17.747220640894749
F114.69168451497822
tp200
a(F30.453100850213364
F82.139349145599596
tp201
a(F64.875825962199471
F44.732581460418203
tp202
a(F99.983931198284068
F26.45850290457247
tp203
a(F146.45285117957545
F10.970124543462902
tp204
a(F177.33775117668603
F6.3838783061202662
tp205
a(F192.91205704680146
F14.819960652432798
tp206
a(F192.91205704680144
F22.607113587490488
tp207
a(F213.0288687957005
F29.745337111293395
tp208
a(F218.86923349699379
F21.309254764980892
tp209
a(F250.92251756620661
F45.421780766540081
tp210
a(F244.70093976658183
F49.435459333181853
tp211
a(F256.85153176971625
F66.680542352370367
tp212
a(F265.78530839080196
F64.236059843832635
tp213
a(F274.85655296604477
F77.785370647166445
tp214
a(F289.09142796933298
F104.77270979939527
tp215
a(F290.23976774642659
F120.80529935388438
tp216
a(F291.98651484325694
F143.5130116126787
tp217
a(F281.50603226227497
F146.13313225792419
tp218
a(F280.709758709509
F164.47397677464267
tp219
asg94
F0
sg95
(F0
F0
tp220
sg97
I01
sg98
(F1
F1
tp221
ssg21
(dp222
g51
(lp223
(F282.45650580633924
F154.86686774207584
tp224
a(F277.13916452019885
F158.36036193573602
tp225
a(F271.62395700102957
F187.49355471645305
tp226
a(F264.3760703850628
F212.7341467718515
tp227
a(F269.27880258446226
F218.62313677638249
tp228
a(F250.06458451932858
F247.44446387408297
tp229
a(F237.83735484151632
F263.16518774555595
tp230
a(F224.58412801768273
F263.89419948065949
tp231
a(F216.87638967955235
F269.27880258446214
tp232
a(F211.63614838906136
F280.63265871385931
tp233
a(F188.11787697529709
F290.53900150563396
tp234
a(F157.48698838732111
F290.23976774642608
tp235
a(F138.44125410735742
F288.98086377141408
tp236
a(F135.39216440943775
F281.52848548274886
tp237
a(F106.83132257924154
F273.64567032653792
tp238
a(F102.43088854405164
F265.00115402373353
tp239
a(F78.88336902995627
F257.05157290664977
tp240
a(F64.03601870689846
F243.07759613200716
tp241
a(F64.03601870689846
F235.21723419627065
tp242
a(F46.568547738595157
F222.99000451845831
tp243
a(F37.488895237987222
F221.95406277419295
tp244
a(F40.47844726131072
F202.48903789964109
tp245
a(F32.594570963952506
F194.16867742075783
tp246
a(F29.124591131913547
F170.12759307040258
tp247
a(F38.362268786402367
F157.649556583172
tp248
a(F42.201679996519331
F134.77927612852653
tp249
a(F30.84782386712218
F126.91891419279006
tp250
a(F35.214691609198013
F111.19819032131704
tp251
a(F30.84782386712218
F95.477466449844059
tp252
a(F40.454932899688998
F79.756742578371075
tp253
a(F36.961438706028332
F69.276259997389076
tp254
a(F47.441921287010317
F59.669150964822279
tp255
a(F53.576785003226419
F56.096143949702537
tp256
a(F59.308865594532868
F61.11171446709568
tp257
a(F65.040946185839317
F55.379633875789239
tp258
a(F62.891415964099409
F48.93104321056947
tp259
a(F69.242693704275297
F43.23175401399557
tp260
a(F95.4774664498444
F35.214691609197587
tp261
a(F102.46445483716573
F18.620594189309429
tp262
a(F115.30457279588884
F15.978020323590499
tp263
a(F119.05855225705386
F36.088065157612789
tp264
a(F127.79228774120551
F35.214691609197587
tp265
a(F126.04554064437519
F16.000473544063937
tp266
a(F138.44125410735737
F16.386003970661761
tp267
a(F146.13313225792399
F11.633605801988097
tp268
a(F160.10710903256663
F7.2667380599123135
tp269
a(F193.29530387234288
F10.760232253572951
tp270
a(F197.72498600786383
F22.688228172178356
tp271
a(F206.39590709857038
F23.860835479800471
tp272
a(F208.1426541954007
F29.974450318706602
tp273
a(F218.47051317877651
F31.86555922884952
tp274
a(F232.59711355102533
F43.948427093349267
tp275
a(F236.96398129310117
F53.555536125916092
tp276
a(F253.02221425566566
F62.938020324108606
tp277
a(F253.55807871298933
F90.237225159353073
tp278
a(F277.73757183993575
F118.74668657403791
tp279
a(F281.58313225792415
F133.90590258011181
tp280
asg94
F0
sg95
(F1.7467470968303331
F1.7467470968303473
tp281
sg97
I01
sg98
(F1
F1
tp282
ssg25
(dp283
g134
(lp284
(F287.89678823376448
F164.77644704760581
tp285
a(F279.25987479960577
F197.72519016004844
tp286
a(F257.38908199774153
F233.6951119338155
tp287
a(F224.58412801768273
F263.89419948065949
tp288
a(F198.21593257177426
F275.53713257477602
tp289
a(F194.5389834726885
F270.03039989372814
tp290
a(F178.62756780028016
F270.51256400501325
tp291
a(F157.89451101502084
F265.69092289216223
tp292
a(F156.67253566203624
F256.55752290064743
tp293
a(F134.66348363356337
F248.98679919731717
tp294
a(F105.82078699622993
F230.97510687963498
tp295
a(F84.60556609968549
F239.65406088276677
tp296
a(F76.40877620783877
F251.2259995536092
tp297
a(F62.006858179567445
F237.82414488683432
tp298
a(F36.573241180785544
F200.75820800192434
tp299
a(F25.333443800413789
F168.25183137474178
tp300
a(F23.635502704035954
F128.63014802056907
tp301
a(F34.868774592741715
F93.89328754886489
tp302
a(F61.382331768538805
F56.086437589815375
tp303
a(F93.750622542722681
F36.702957298393784
tp304
a(F111.66466060087066
F22.564926437043653
tp305
a(F145.15499235706582
F14.214771599736935
tp306
a(F185.69779746698566
F16.599016333498469
tp307
a(F227.17984566270195
F35.159012285576068
tp308
a(F258.6869408202511
F65.358099832420038
tp309
a(F279.25987479960577
F102.62588042869672
tp310
a(F287.89678823376448
F136.22355295239419
tp311
asg4
F0
sg5
(F0
F0
tp312
sg174
I01
sg7
(F1
F1
tp313
ssg29
(dp314
g51
(lp315
(F294.68373548415161
F159.23373548415165
tp316
a(F290.23976774642654
F187.18168903343695
tp317
a(F281.23106603359651
F213.69476116890803
tp318
a(F265.24944393347806
F236.31523257906099
tp319
a(F220.21726027560692
F256.03383754492302
tp320
a(F174.14390020065443
F287.91888086038847
tp321
a(F141.06137475260289
F294.22110506190506
tp322
a(F102.20396956966145
F282.40185903116401
tp323
a(F65.749199510614716
F254.52067144275151
tp324
a(F35.742148141156903
F221.95406277419295
tp325
a(F18.644108550931591
F172.79433725352541
tp326
a(F19.517482099346736
F139.55951887587176
tp327
a(F31.375280399081046
F99.133528839355876
tp328
a(F62.255705316953964
F56.959811138230577
tp329
a(F94.343607633924861
F35.192238388724149
tp330
a(F119.22703604222372
F20.752871712737544
tp331
a(F155.8030556839359
F14.827866236441878
tp332
a(F173.20771225879429
F28.227703221876766
tp333
a(F187.90243898424569
F36.23242697092536
tp334
a(F200.28229225966447
F34.341318060782953
tp335
a(F226.48349871211946
F41.328306448104286
tp336
a(F183.68819483977632
F111.19819032131753
tp337
a(F192.42193032392797
F111.19819032131753
tp338
a(F246.57109032566825
F43.948427093349721
tp339
a(F262.6293232882324
F63.811393872523752
tp340
a(F282.97781313042674
F91.672106573167696
tp341
a(F292.93698838732121
F119.93192580546912
tp342
asg94
F0
sg95
(F0.87337354841517367
F-0.87337354841517367
tp343
sg97
I01
sg98
(F1
F1
tp344
ssg33
(dp345
g134
(lp346
(F288.49302064959625
F196.78879806600384
tp347
a(F280.63265871385977
F202.02903935649482
tp348
a(F283.3298793547545
F214.25626903430714
tp349
a(F266.3837157105387
F240.76934116977816
tp350
a(F245.16185231992924
F259.02294483785528
tp351
a(F206.24328350096428
F288.34865883628419
tp352
a(F170.65040600699376
F295.779242796125
tp353
a(F133.20101281686644
F294.22110506190512
tp354
a(F103.07734311807664
F286.76872677323985
tp355
a(F75.356308543181555
F272.86151595947001
tp356
a(F73.59859965151243
F259.42577390148807
tp357
a(F57.877875780039432
F254.18553261099706
tp358
a(F52.637634489548446
F234.09794099744823
tp359
a(F33.99540104432657
F225.44755696785361
tp360
a(F36.043537069660275
F216.6304700291449
tp361
a(F28.183175133923779
F201.78311970608709
tp362
a(F19.517482099346754
F192.00855531865909
tp363
a(F27.309801585508612
F179.07540744729275
tp364
a(F16.897361454101233
F164.88735177991157
tp365
a(F16.527930076023221
F141.92883271169899
tp366
a(F24.700642735101834
F138.18355114084096
tp367
a(F34.954206341693578
F116.41597839133459
tp368
a(F60.711008298407592
F79.268899456553697
tp369
a(F69.339074390834469
F70.723773335012481
tp370
a(F80.585588038833734
F68.156966798566685
tp371
a(F84.079082232494414
F60.296604862830179
tp372
a(F109.40691513653421
F48.069375185017861
tp373
a(F125.12763900800722
F48.94274873343295
tp374
a(F133.86137449215886
F39.335639700866125
tp375
a(F174.03655771925648
F36.715519055620689
tp376
a(F196.7442699780508
F38.462266152450979
tp377
a(F228.02207948687678
F51.470134766202278
tp378
a(F229.88793324181881
F57.83885730459977
tp379
a(F242.2528113382117
F61.933046906444787
tp380
a(F250.85093222517145
F65.515597276011306
tp381
a(F257.65777792734787
F75.904993347754257
tp382
a(F269.92800829122439
F78.410794211840724
tp383
a(F270.1521761328778
F85.870357417277745
tp384
a(F278.01253806861428
F88.490478062523238
tp385
a(F290.83817506616333
F117.87331302562276
tp386
a(F292.85988839167209
F134.77927612852704
tp387
a(F278.01253806861428
F141.76626451584838
tp388
a(F294.60663548850243
F143.5130116126787
tp389
a(F294.68373548415167
F163.60060322622746
tp390
asg4
F0
sg5
(F-1.7022190088773925
F1.119293198822902
tp391
sg174
I01
sg7
(F1
F1
tp392
ssg37
(dp393
g134
(lp394
(F282.75751433260234
F163.60060322622752
tp395
a(F285.94999999999999
F187.18168903343698
tp396
a(F279.47655348088756
F219.80837600781416
tp397
a(F256.48852935375146
F252.90932999894915
tp398
a(F219.28952853604187
F280.48829690054765
tp399
a(F180.25751503956059
F294.03249569929466
tp400
a(F134.06273818146377
F297.71459925556576
tp401
a(F96.967611007109738
F286.76872677323985
tp402
a(F62.289271610068212
F267.53205548763231
tp403
a(F40.421366606574907
F238.79994757127855
tp404
a(F31.375280399081067
F214.96707438687164
tp405
a(F20.390855647761921
F181.52807273767709
tp406
a(F23.884349841422566
F118.59855371390779
tp407
a(F64.563475238857365
F57.211598515427909
tp408
a(F90.20365886623928
F38.618966621512072
tp409
a(F102.46445483716586
F41.328306448104286
tp410
a(F130.41240838645118
F31.721197415537461
tp411
a(F163.60060322622749
F33.467944512367751
tp412
a(F180.8075889270263
F39.559106130799989
tp413
a(F195.21053475434314
F35.600222035795412
tp414
a(F233.53330149288567
F58.496543657200164
tp415
a(F242.92497253440118
F74.660863101192632
tp416
a(F259.67169355189577
F83.250236772032252
tp417
a(F266.12281748189315
F96.999588712300095
tp418
a(F278.61094538835101
F125.73367496135924
tp419
a(F278.01253806861428
F134.77927612852704
tp420
a(F289.43184600984279
F153.12012064524549
tp421
asg4
F0
sg5
(F0
F0
tp422
sg174
I01
sg7
(F1
F1
tp423
ssg41
(dp424
g51
(lp425
(F285.94999999999999
F150.5
tp426
a(F262.890221516878
F193.60716955535921
tp427
a(F257.38908199774158
F215.35426741709699
tp428
a(F238.7107283899318
F209.88940129223133
tp429
a(F223.71075446926758
F230.70600464088318
tp430
a(F210.82558923409138
F248.61707118170602
tp431
a(F197.83065539958872
F254.04592183480747
tp432
a(F198.53554516283413
F260.54506710031097
tp433
a(F168.58035924921407
F271.92137645018204
tp434
a(F121.6786729022995
F285.87290000435075
tp435
a(F94.604092901429368
F274.51904387495364
tp436
a(F67.529512900559197
F264.03856129397161
tp437
a(F59.635584671708543
F249.28043015226052
tp438
a(F50.935415480671054
F214.25626903430714
tp439
a(F43.602510076893395
F213.2203272900413
tp440
a(F44.821800641764895
F230.8503664541953
tp441
a(F19.779608995167994
F208.44544179297037
tp442
a(F37.477564037574709
F200.65828885791265
tp443
a(F31.578245690105803
F188.32863004407128
tp444
a(F14.535770464084514
F195.46685356787418
tp445
a(F12.309002739403216
F183.82613724485719
tp446
a(F11.653522923017764
F110.03563923133999
tp447
a(F21.76817136651422
F80.792684322637399
tp448
a(F42.16811370340514
F55.21306404140023
tp449
a(F76.263248384710877
F76.26324838471092
tp450
a(F86.743730965692876
F70.149633545804761
tp451
a(F96.090354730755195
F30.82537064664831
tp452
a(F88.490478062523195
F21.240714834555433
tp453
a(F123.59390378429953
F5.9055213896797341
tp454
a(F163.60060322622749
F10.760232253573463
tp455
a(F171.46096516196397
F18.620594189309941
tp456
a(F177.57458000087016
F11.633605801988608
tp457
a(F191.6113711689577
F15.701239784857023
tp458
a(F224.5841280176827
F37.105800519340477
tp459
a(F257.38908199774147
F67.304888066184461
tp460
a(F278.61094538835096
F106.51945689622558
tp461
a(F285.94999999999999
F150.49999999999997
tp462
asg94
F0
sg95
(F0
F0
tp463
sg97
I01
sg98
(F1
F1
tp464
ssg45
(dp465
g134
(lp466
(F251.2341839874727
F209.80618568806742
tp467
a(F227.21885973440575
F189.57777315202776
tp468
a(F215.13946841798167
F193.78611089474805
tp469
a(F223.33625830982839
F206.32237778816065
tp470
a(F246.96229976279832
F217.89431645900305
tp471
a(F246.48013565151322
F224.16244990570937
tp472
a(F249.19229210589481
F238.51675304666651
tp473
a(F223.13763568382743
F263.41203536937439
tp474
a(F209.83566319384556
F266.11072758751311
tp475
a(F174.58989111880433
F282.28743013276744
tp476
a(F151.8508945491852
F285.00520546646834
tp477
a(F99.58384892441596
F280.6551119343336
tp478
a(F58.762211123293383
F252.77392434592119
tp479
a(F30.696970420736402
F223.24528482502836
tp480
a(F14.781182979192909
F187.89249438600149
tp481
a(F15.150614357270921
F169.30084305986477
tp482
a(F16.897361454101237
F128.20566274647462
tp483
a(F31.375280399081049
F86.032925613128384
tp484
a(F70.98944080110563
F38.618966621512072
tp485
a(F101.13795941070333
F23.72967935570631
tp486
a(F124.53803729657616
F15.850892456300272
tp487
a(F153.29738688304045
F15.03046631096143
tp488
a(F152.56275401823939
F31.944601036177062
tp489
a(F167.69473855667121
F33.391093370032365
tp490
a(F178.78451311622854
F16.033185363768723
tp491
a(F216.87547790775147
F29.051616368466455
tp492
a(F243.53935903257371
F50.053237100764122
tp493
a(F252.54964647221851
F62.178334306165695
tp494
a(F267.27779975305174
F76.138067741183505
tp495
a(F261.97399452891563
F83.370529410460023
tp496
a(F259.79990255416698
F95.752570632005387
tp497
a(F250.16326282253004
F110.85893389779147
tp498
a(F236.3546893145261
F138.81940220824657
tp499
a(F230.08655586781984
F139.30156631953164
tp500
a(F234.84060420377926
F163.03626689341263
tp501
asg4
F0
sg5
(F0.1508534463858382
F-1.1286538549847194
tp502
sg174
I01
sg7
(F1
F1
tp503
ss(dp504
g2
(L301L
L301L
tp505
sg9
(L301L
L301L
tp506
sg13
(L301L
L301L
tp507
sg17
(L301L
L301L
tp508
sg21
(L301L
L301L
tp509
sg25
(L301L
L301L
tp510
sg29
(L301L
L301L
tp511
sg33
(L301L
L301L
tp512
sg37
(L301L
L301L
tp513
sg41
(L301L
L301L
tp514
sg45
(L301L
L301L
tp515
st.