((dp1
S'cam_110bL'
p2
(dp3
S'angle'
p4
F0
sS'pos'
p5
(F4.245003793637963
F154.50031255447544
tp6
sS'size'
p7
(F135.33955895324866
F137.03205548763228
tp8
ssS'cam_117L'
p9
(dp10
S'angle'
p11
F0
sS'pos'
p12
(F137.03205548763216
F5.1526496769421897
tp13
sS'size'
p14
(F150.13265871385977
F287.25230581504087
tp15
ssS'cam_118bL'
p16
(dp17
sS'cam_109bL'
p18
(dp19
g4
F0
sg5
(F3.4059025801118992
F13.013011612678639
tp20
sg7
(F276.77182323405879
F255.81085807209487
tp21
ssS'cam_115bL'
p22
(dp23
g11
F0
sg12
(F0.65526829877950377
F12.139638064263522
tp24
sg14
(F281.13869097613463
F276.77182323405884
tp25
ssS'cam_111cL'
p26
(dp27
S'angle'
p28
F0
sS'pos'
p29
(F20.018054858070677
F22.638175503316234
tp30
sS'size'
p31
(F273.27832904039815
F272.404955491983
tp32
ssS'cam_119bL'
p33
(dp34
S'angle'
p35
F0
sS'pos'
p36
(F5.1526496769421897
F5.1526496769421897
tp37
sS'size'
p38
(F289.87242646028631
F290.74580000870151
tp39
ssS'cam_120L'
p40
(dp41
S'angle'
p42
F0
sS'pos'
p43
(F12.113264313193042
F5.1211633818986115
tp44
sS'size'
p45
(F277.3010798417439
F278.62555334077001
tp46
ssS'cam_112bL'
p47
(dp48
S'angle'
p49
F0
sS'pos'
p50
(F20.873373548415145
F12.139638064263465
tp51
sS'size'
p52
(F265.41796710466195
F256.68423162050999
tp53
ss(dp54
g2
(dp55
S'points'
p56
(lp57
(F297.30385612939716
F161.85385612939717
tp58
a(F288.49302064959625
F188.92843613026733
tp59
a(F251.5363653874808
F219.80837600781416
tp60
a(F232.06124909370166
F241.55547386955192
tp61
a(F209.01602774381618
F260.54506710031097
tp62
a(F210.76277484064653
F271.02554968129294
tp63
a(F196.63617446839746
F285.72853819103864
tp64
a(F169.77703245857862
F287.91888086038847
tp65
a(F134.93062374625219
F291.60098441665957
tp66
a(F96.090354730755294
F277.16161774067302
tp67
a(F64.875825962199556
F248.40705660384538
tp68
a(F36.615521689572049
F209.72683309638063
tp69
a(F23.88434984142258
F164.06060176937379
tp70
a(F29.124591131913562
F126.4589156496443
tp71
a(F42.729136528478207
F88.653046258373877
tp72
a(F58.762211123293298
F63.946799525551853
tp73
a(F74.256016020376038
F45.672720969706177
tp74
a(F117.48028894539337
F35.600222035795412
tp75
a(F147.94269374819942
F23.561601720593501
tp76
a(F196.63617446839734
F34.485679874095013
tp77
a(F247.78197296517462
F66.431514517769301
tp78
a(F278.61094538835101
F106.51945689622559
tp79
a(F291.19024129049097
F135.65264967694216
tp80
asg4
F0
sg5
(F0
F0
tp81
sS'closed'
p82
I01
sg7
(F1
F1
tp83
ssg9
(dp84
S'points'
p85
(lp86
(F274.14137049982764
F191.91237547213302
tp87
a(F260.27010087163251
F213.75832510255316
tp88
a(F254.46797866078995
F209.72039584346209
tp89
a(F214.59377812539839
F248.54246225687331
tp90
a(F208.86340414620977
F265.64094657748984
tp91
a(F183.75100923322125
F281.80526602148234
tp92
a(F140.18800120418777
F281.9938753840928
tp93
a(F98.710475376000787
F270.17462935335169
tp94
a(F58.762211123293397
F250.1538037006757
tp95
a(F31.375280399081067
F214.96707438687164
tp96
a(F16.897361454101254
F172.79433725352544
tp97
a(F11.657120163610241
F121.21867435915328
tp98
a(F31.375280399081049
F86.032925613128384
tp99
a(F52.648596284387139
F49.972822750909188
tp100
a(F94.343607633924861
F19.471514517251194
tp101
a(F136.69450701052702
F8.5256420349252267
tp102
a(F186.37112987846672
F11.334372042781183
tp103
a(F232.5929591350972
F30.522445837016306
tp104
a(F224.58412801768267
F36.23242697092536
tp105
a(F245.69771677725308
F70.149633545804761
tp106
a(F247.78197296517462
F88.265853228148416
tp107
a(F256.77660667797187
F110.01295108988626
tp108
a(F264.111260886492
F109.43026069616113
tp109
a(F270.86155844448342
F124.85951225728438
tp110
a(F279.54051244761513
F123.41301992342909
tp111
a(F282.84771524346934
F150.53617319313514
tp112
asS'angle'
p113
F0
sS'pos'
p114
(F-0.87337354841525894
F0.87337354841508841
tp115
sS'closed'
p116
I01
sS'size'
p117
(F1
F1
tp118
ssg16
(dp119
S'points'
p120
(lp121
(F285.94999999999999
F150.5
tp122
a(F278.61094538835096
F194.48054310377438
tp123
a(F257.38908199774153
F233.6951119338155
tp124
a(F224.58412801768273
F263.89419948065949
tp125
a(F183.75100923322125
F281.80526602148234
tp126
a(F139.3146276557726
F285.48736957775344
tp127
a(F96.090354730755308
F274.54149709542753
tp128
a(F58.762211123293397
F250.1538037006757
tp129
a(F31.375280399081067
F214.96707438687164
tp130
a(F16.897361454101254
F172.79433725352544
tp131
a(F16.897361454101237
F128.20566274647462
tp132
a(F26.05301077294623
F77.669359057773647
tp133
a(F51.919293032548538
F49.325547834714399
tp134
a(F96.090354730755223
F26.458502904572491
tp135
a(F139.31462765577254
F15.512630422246559
tp136
a(F183.75100923322123
F19.194733978517689
tp137
a(F224.5841280176827
F37.105800519340477
tp138
a(F257.38908199774147
F67.304888066184461
tp139
a(F278.61094538835096
F106.51945689622558
tp140
a(F285.94999999999999
F150.49999999999997
tp141
asg35
F0
sg36
(F0
F0
tp142
sS'closed'
p143
I01
sg38
(F1
F1
tp144
ssg18
(dp145
S'points'
p146
(lp147
(F277.21626451584831
F153.12012064524549
tp148
a(F271.62395700102968
F200.59415794268054
tp149
a(F242.54173167468369
F228.45487064332448
tp150
a(F204.49653640413393
F253.41371689967752
tp151
a(F160.16992342601176
F263.46442150476383
tp152
a(F106.99980636441146
F260.1595366737136
tp153
a(F57.661918600487965
F240.47992870723604
tp154
a(F31.687631122423252
F213.47211466723869
tp155
a(F33.995401044326556
F193.13273567649247
tp156
a(F17.770735002516414
F155.32686628522211
tp157
a(F5.5435053247040749
F148.29325436002344
tp158
a(F11.527596664334343
F105.38413348094355
tp159
a(F24.262828872901913
F76.517479722910181
tp160
a(F49.434959941361797
F48.505933504714221
tp161
a(F84.422840754213524
F23.433061269833871
tp162
a(F107.70469612765686
F20.367341286140288
tp163
a(F115.56505806339337
F27.354329673461621
tp164
a(F139.31462765577254
F15.512630422246559
tp165
a(F160.16992342601174
F20.941481075348008
tp166
a(F216.72376608194617
F45.839536003492185
tp167
a(F241.66835812626843
F71.671755808260286
tp168
a(F264.63696861370835
F106.51945689622559
tp169
a(F271.10264967694218
F129.539034838036
tp170
asg28
F0
sg29
(F0
F0
tp171
sS'closed'
p172
I01
sg31
(F1
F1
tp173
ssg22
(dp174
g146
(lp175
(F273.76618883225251
F144.95950394653397
tp176
a(F270.19706355155313
F168.19820781242376
tp177
a(F254.84944791020803
F218.61108463434971
tp178
a(F241.10257110254736
F213.6984749944217
tp179
a(F209.50064791357107
F251.01804039159236
tp180
a(F177.61772330845912
F264.33779505317909
tp181
a(F158.21239693491282
F282.57139251344915
tp182
a(F149.40327303943334
F276.45777767454297
tp183
a(F120.82890465624899
F288.1074902229991
tp184
a(F96.090354730755308
F274.54149709542753
tp185
a(F68.359333201022253
F265.10392154514579
tp186
a(F58.795777416407546
F250.06458451932889
tp187
a(F43.877166594571662
F230.93958563554204
tp188
a(F21.210559470024272
F216.00301613113743
tp189
a(F39.581559351273896
F202.02903935649482
tp190
a(F33.467944512367737
F187.18168903343695
tp191
a(F14.781182979192909
F194.00610922490762
tp192
a(F5.5435053247040962
F136.9860217685036
tp193
a(F19.517482099346733
F94.144094358283127
tp194
a(F40.109015883232715
F57.211598515427852
tp195
a(F80.270613623185596
F81.503489675201934
tp196
a(F86.08066630722989
F46.47932855724855
tp197
a(F87.279918434249936
F27.331876452987672
tp198
a(F112.00634357978622
F12.892509777001067
tp199
a(F162.61695888265257
F11.825592504747647
tp200
a(F167.02152083039232
F17.939207343653834
tp201
a(F177.58462250638559
F15.701239784857023
tp202
a(F227.85678242400024
F38.403659341850101
tp203
a(F256.02882434649609
F69.925008711429911
tp204
a(F273.51755249200073
F105.64608334781042
tp205
a(F277.80674455240285
F140.92906416056832
tp206
asg28
F0
sg29
(F-0.87337354841515946
F-0.87337354841505999
tp207
sg172
I01
sg31
(F1
F1
tp208
ssg26
(dp209
g146
(lp210
(F292.93698838732132
F153.99349419366069
tp211
a(F282.99586798849754
F190.30248901543624
tp212
a(F274.56535499587369
F196.61546187460763
tp213
a(F275.94188822913316
F210.82085778001795
tp214
a(F269.39122486435554
F226.10573896449918
tp215
a(F268.51780308238517
F235.27666767518781
tp216
a(F259.57234705133635
F241.99223299409238
tp217
a(F242.05169545309644
F245.99011408848139
tp218
a(F226.48349871211946
F257.05157290665022
tp219
a(F220.86950562475374
F270.88812078307035
tp220
a(F204.04580912264657
F278.14634936702362
tp221
a(F188.26731622863366
F286.97832853766346
tp222
a(F161.09515491023313
F290.53297232536823
tp223
a(F147.00650580633931
F287.40762882587262
tp224
a(F136.34678951161052
F289.48835076819091
tp225
a(F120.75507679354152
F283.03660757450723
tp226
a(F116.99155993055935
F275.50957384854286
tp227
a(F96.090354730755308
F274.54149709542753
tp228
a(F80.208635954594527
F265.50229663741516
tp229
a(F77.102669771570405
F257.14030975244526
tp230
a(F76.263248384710863
F247.44446387408351
tp231
a(F68.417441897994806
F248.9072827799784
tp232
a(F59.683224078291296
F244.10346297914154
tp233
a(F58.841654435331044
F235.91722331973492
tp234
a(F58.405377646342551
F227.62034342723399
tp235
a(F46.581897348736028
F221.39449664791238
tp236
a(F38.721101311002869
F220.08436397495683
tp237
a(F40.467944874943569
F213.97041150116436
tp238
a(F34.741749522265678
F209.48977747388804
tp239
a(F38.731748398035585
F202.05213407443523
tp240
a(F29.584002315086884
F197.92578748178389
tp241
a(F26.504470486668062
F187.59506403870594
tp242
a(F30.457375863502044
F176.09144877140474
tp243
a(F21.723640379350385
F165.61096619042274
tp244
a(F22.690319129223784
F142.675747780405
tp245
a(F37.762592822160684
F126.95502390893202
tp246
a(F33.122027495911361
F117.47437335607435
tp247
a(F44.431352638144709
F114.95530038234307
tp248
a(F37.444364250823376
F100.10795005928526
tp249
a(F53.251947163480807
F92.566209639386955
tp250
a(F56.722839439119369
F76.508417761055767
tp251
a(F61.347792376196999
F72.229708852407271
tp252
a(F65.951249588898563
F64.421549133495887
tp253
a(F80.630116126786703
F61.415898061653081
tp254
a(F91.648243973909018
F49.32247968225019
tp255
a(F105.13915326822134
F40.941379161416194
tp256
a(F118.18517870863883
F40.454932899689084
tp257
a(F166.93198844345397
F29.972359361661717
tp258
a(F181.35847663567216
F31.289723608753491
tp259
a(F191.73063006822983
F31.865954355006693
tp260
a(F202.7497893073035
F35.359053422510158
tp261
a(F209.59378320207921
F35.323338832525934
tp262
a(F223.99955185840929
F42.238107787564417
tp263
a(F235.52416678347339
F52.610261220122055
tp264
a(F241.63224841012703
F52.439482885055924
tp265
a(F246.47255096228429
F59.525030175160509
tp266
a(F253.963550663576
F57.796337936400903
tp267
a(F257.99716588734839
F71.625875846477811
tp268
a(F267.79308857365288
F75.659491070250255
tp269
a(F269.52178081241254
F82.574260025288737
tp270
a(F282.10443958201159
F94.292227218413302
tp271
a(F288.57012064524548
F119.93192580546921
tp272
asg28
F0
sg29
(F0
F0
tp273
sg172
I01
sg31
(F1
F1
tp274
ssg33
(dp275
g146
(lp276
(F272.84939677377253
F71.89638064263508
tp277
a(F289.96480151774819
F126.3574063273914
tp278
a(F262.29181419714126
F131.28578193486638
tp279
a(F264.03856129397161
F146.13313225792419
tp280
a(F284.12615290752046
F140.8928909674332
tp281
a(F288.49302064959625
F180.19470064611568
tp282
a(F267.86956457872355
F224.96137644966382
tp283
a(F224.58412801768273
F263.89419948065949
tp284
a(F176.76402084589992
F289.66562795721882
tp285
a(F128.8341450747906
F288.98086377141408
tp286
a(F90.850113440264295
F279.78173838591852
tp287
a(F47.408354993896225
F254.52067144275151
tp288
a(F19.148050721268735
F214.09370083845644
tp289
a(F8.1636259699495959
F168.4274695114496
tp290
a(F8.1636259699495817
F130.82578339172011
tp291
a(F16.000473544064416
F103.33782838558105
tp292
a(F28.755159753835553
F82.539431419467718
tp293
a(F64.875825962199457
F54.339690492985028
tp294
a(F110.06433150539786
F20.344888065666339
tp295
a(F134.0743863652815
F9.3990155833404287
tp296
a(F173.27052665223923
F27.928469462669341
tp297
a(F220.21726027560683
F41.472668261416345
tp298
a(F186.30831548502178
F86.743730965692919
tp299
a(F164.8114858657338
F100.49308290596076
tp300
a(F133.90590258011184
F102.4644548371659
tp301
a(F95.477466449844528
F133.0325290316967
tp302
a(F90.237225159353514
F161.8538561293972
tp303
a(F92.857345804599035
F171.46096516196403
tp304
a(F88.490478062523195
F181.94144774294602
tp305
a(F91.110598707768702
F198.53554516283413
tp306
a(F97.224213546674832
F222.99000451845879
tp307
a(F129.539034838036
F248.31783742249866
tp308
a(F175.82783290403981
F247.44446387408345
tp309
a(F218.34817054770446
F220.93139173861238
tp310
a(F236.96398129310145
F197.66217161441901
tp311
a(F245.69771677725308
F167.09409741988819
tp312
a(F229.97699290578012
F124.29879354754505
tp313
a(F194.16867742075831
F96.350839998259744
tp314
a(F239.66120193399618
F41.328306448104229
tp315
asg28
F0
sg29
(F0
F0
tp316
sg172
I01
sg31
(F1
F1
tp317
ssg40
(dp318
g85
(lp319
(F295.91353741968646
F116.53971116850289
tp320
a(F290.07317271839321
F119.13542881352214
tp321
a(F291.37103154090283
F141.84795820744046
tp322
a(F284.32518387179522
F143.61803215359396
tp323
a(F281.7892039434588
F177.89459349378018
tp324
a(F275.62050881390667
F201.30856018154299
tp325
a(F243.99918451930179
F241.13415812942628
tp326
a(F198.29500906165947
F268.27032789774819
tp327
a(F150.73064967242681
F275.66146216252605
tp328
a(F132.56062615729212
F267.87430922746842
tp329
a(F115.5576881103096
F254.45832011733233
tp330
a(F95.637654554804456
F252.75644100700219
tp331
a(F73.786010569077362
F250.96089419060397
tp332
a(F61.42655672945007
F241.73551366987954
tp333
a(F55.315103865266465
F233.86215788468985
tp334
a(F62.428413036876279
F222.7655518373291
tp335
a(F49.99089157289562
F207.66530619262582
tp336
a(F38.371565471339579
F215.05978539382556
tp337
a(F19.092878236922534
F171.298501222939
tp338
a(F15.592647576255089
F142.06671831123856
tp339
a(F19.239801888602571
F139.00219636093269
tp340
a(F20.142008510375291
F126.73692948995921
tp341
a(F26.1362027115035
F127.05662698517474
tp342
a(F28.516687555657271
F121.67303025898383
tp343
a(F20.295838010210218
F116.67375640509781
tp344
a(F24.189414477739078
F100.45052112372758
tp345
a(F31.976567412796769
F99.152662301217958
tp346
a(F39.114790936599675
F88.769791721141019
tp347
a(F30.678708590287158
F80.982638786083299
tp348
a(F34.572285057816018
F75.142274084790017
tp349
a(F43.008367404128521
F79.684779963573675
tp350
a(F55.878597174119662
F64.694754287712783
tp351
a(F52.272917010745246
F55.388702178108019
tp352
a(F83.16045086099578
F27.63394871091424
tp353
a(F140.3211009963367
F7.0097243402844924
tp354
a(F163.74019414418345
F2.5323967267171383
tp355
a(F195.47723091541113
F8.4096257584259888
tp356
a(F197.74842934214868
F20.960002425373659
tp357
a(F215.45031025966284
F26.425276801424417
tp358
a(F221.93558453663815
F17.902440657771905
tp359
a(F253.73312568812378
F41.912828874199846
tp360
a(F247.29498927264098
F48.259638867632134
tp361
a(F260.87134921192666
F63.976428856863379
tp362
a(F269.30743155823939
F58.136064155570068
tp363
a(F274.71736892082208
F77.317633389759152
tp364
a(F283.3542823549808
F85.879894987441162
tp365
asg113
F0
sg114
(F-1.7467470968303473
F4.3668677420758968
tp366
sg116
I01
sg117
(F1
F1
tp367
ssg47
(dp368
g146
(lp369
(F278.08963806426351
F181.941447742946
tp370
a(F261.1434744200476
F218.06162891098387
tp371
a(F225.94763425479553
F256.40282419260978
tp372
a(F194.16867742075831
F274.51904387495364
tp373
a(F176.54858285484855
F274.37468206164152
tp374
a(F152.30956149027526
F268.70466279525482
tp375
a(F148.92173668833942
F257.53941602846817
tp376
a(F90.850113440264323
F228.2526990294237
tp377
a(F72.769754191050311
F246.57109032566831
tp378
a(F59.635584671708564
F244.91356241018471
tp379
a(F42.729136528478243
F220.20731567736266
tp380
a(F31.744711777159079
F197.24879660915013
tp381
a(F16.89736145410124
F155.2802427473448
tp382
a(F19.493967737725075
F115.56505806339339
tp383
a(F30.501906850665879
F99.133528839355876
tp384
a(F33.467944512367737
F83.250236772032252
tp385
a(F58.762211123293319
F57.833184686645723
tp386
a(F76.170647010601101
F42.24194418013019
tp387
a(F89.744171219340075
F34.753103237377644
tp388
a(F97.701064721014632
F35.689208355221723
tp389
a(F99.834775202131496
F29.734870817026717
tp390
a(F139.31462765577254
F15.512630422246559
tp391
a(F183.75100923322123
F19.194733978517689
tp392
a(F221.09063382402206
F40.5992947130012
tp393
a(F254.76896135249598
F67.304888066184446
tp394
a(F278.61094538835096
F106.51945689622558
tp395
a(F282.45650580633935
F138.27277032218768
tp396
asg28
F0
sg29
(F0
F0
tp397
sg172
I01
sg31
(F1
F1
tp398
ss(dp399
g2
(L301L
L301L
tp400
sg9
(L301L
L301L
tp401
sg16
(L301L
L301L
tp402
sg18
(L301L
L301L
tp403
sg22
(L301L
L301L
tp404
sg26
(L301L
L301L
tp405
sg33
(L301L
L301L
tp406
sg40
(L301L
L301L
tp407
sg47
(L301L
L301L
tp408
st.