((dp1
S'120'
p2
(dp3
S'angle'
p4
F0
sS'pos'
p5
(F20
F20
tp6
sS'size'
p7
(F20
F20
tp8
ssS'109'
p9
(dp10
g4
F0
sg5
(F20
F20
tp11
sg7
(F20
F20
tp12
ssS'115'
p13
(dp14
g4
F0
sg5
(F20
F20
tp15
sg7
(F20
F20
tp16
ssS'114'
p17
(dp18
g4
F0
sg5
(F20
F20
tp19
sg7
(F20
F20
tp20
ssS'117'
p21
(dp22
g4
F0
sg5
(F20
F20
tp23
sg7
(F20
F20
tp24
ssS'116'
p25
(dp26
g4
F0
sg5
(F20
F20
tp27
sg7
(F20
F20
tp28
ssS'111'
p29
(dp30
g4
F0
sg5
(F20
F20
tp31
sg7
(F20
F20
tp32
ssS'110'
p33
(dp34
g4
F0
sg5
(F20
F20
tp35
sg7
(F20
F20
tp36
ssS'113'
p37
(dp38
g4
F0
sg5
(F20
F20
tp39
sg7
(F20
F20
tp40
ssS'119'
p41
(dp42
g4
F0
sg5
(F20
F20
tp43
sg7
(F20
F20
tp44
ss(dp45
g2
(dp46
S'points'
p47
(lp48
(F285.94999999999999
F150.5
tp49
a(F278.61094538835096
F194.48054310377438
tp50
a(F257.38908199774153
F233.6951119338155
tp51
a(F224.58412801768273
F263.89419948065949
tp52
a(F183.75100923322125
F281.80526602148234
tp53
a(F139.3146276557726
F285.48736957775344
tp54
a(F96.090354730755308
F274.54149709542753
tp55
a(F58.762211123293397
F250.1538037006757
tp56
a(F31.375280399081067
F214.96707438687164
tp57
a(F16.897361454101254
F172.79433725352544
tp58
a(F16.897361454101237
F128.20566274647462
tp59
a(F31.375280399081049
F86.032925613128384
tp60
a(F58.762211123293312
F50.846196299324362
tp61
a(F96.090354730755223
F26.458502904572491
tp62
a(F139.31462765577254
F15.512630422246559
tp63
a(F183.75100923322123
F19.194733978517689
tp64
a(F224.5841280176827
F37.105800519340477
tp65
a(F257.38908199774147
F67.304888066184461
tp66
a(F278.61094538835096
F106.51945689622558
tp67
a(F285.94999999999999
F150.49999999999997
tp68
asg4
F0
sg5
(F0
F0
tp69
sS'closed'
p70
I01
sg7
(F1
F1
tp71
ssg9
(dp72
g47
(lp73
(F285.94999999999999
F150.5
tp74
a(F278.61094538835096
F194.48054310377438
tp75
a(F257.38908199774153
F233.6951119338155
tp76
a(F224.58412801768273
F263.89419948065949
tp77
a(F183.75100923322125
F281.80526602148234
tp78
a(F139.3146276557726
F285.48736957775344
tp79
a(F96.090354730755308
F274.54149709542753
tp80
a(F58.762211123293397
F250.1538037006757
tp81
a(F31.375280399081067
F214.96707438687164
tp82
a(F16.897361454101254
F172.79433725352544
tp83
a(F16.897361454101237
F128.20566274647462
tp84
a(F31.375280399081049
F86.032925613128384
tp85
a(F58.762211123293312
F50.846196299324362
tp86
a(F96.090354730755223
F26.458502904572491
tp87
a(F139.31462765577254
F15.512630422246559
tp88
a(F183.75100923322123
F19.194733978517689
tp89
a(F224.5841280176827
F37.105800519340477
tp90
a(F257.38908199774147
F67.304888066184461
tp91
a(F278.61094538835096
F106.51945689622558
tp92
a(F285.94999999999999
F150.49999999999997
tp93
asg4
F0
sg5
(F0
F0
tp94
sg70
I01
sg7
(F1
F1
tp95
ssg13
(dp96
g47
(lp97
(F285.94999999999999
F150.5
tp98
a(F278.61094538835096
F194.48054310377438
tp99
a(F257.38908199774153
F233.6951119338155
tp100
a(F224.58412801768273
F263.89419948065949
tp101
a(F183.75100923322125
F281.80526602148234
tp102
a(F139.3146276557726
F285.48736957775344
tp103
a(F96.090354730755308
F274.54149709542753
tp104
a(F58.762211123293397
F250.1538037006757
tp105
a(F31.375280399081067
F214.96707438687164
tp106
a(F16.897361454101254
F172.79433725352544
tp107
a(F16.897361454101237
F128.20566274647462
tp108
a(F31.375280399081049
F86.032925613128384
tp109
a(F58.762211123293312
F50.846196299324362
tp110
a(F96.090354730755223
F26.458502904572491
tp111
a(F139.31462765577254
F15.512630422246559
tp112
a(F183.75100923322123
F19.194733978517689
tp113
a(F224.5841280176827
F37.105800519340477
tp114
a(F257.38908199774147
F67.304888066184461
tp115
a(F278.61094538835096
F106.51945689622558
tp116
a(F285.94999999999999
F150.49999999999997
tp117
asg4
F0
sg5
(F0
F0
tp118
sg70
I01
sg7
(F1
F1
tp119
ssg17
(dp120
g47
(lp121
(F285.94999999999999
F150.5
tp122
a(F278.61094538835096
F194.48054310377438
tp123
a(F257.38908199774153
F233.6951119338155
tp124
a(F224.58412801768273
F263.89419948065949
tp125
a(F183.75100923322125
F281.80526602148234
tp126
a(F139.3146276557726
F285.48736957775344
tp127
a(F96.090354730755308
F274.54149709542753
tp128
a(F58.762211123293397
F250.1538037006757
tp129
a(F31.375280399081067
F214.96707438687164
tp130
a(F16.897361454101254
F172.79433725352544
tp131
a(F16.897361454101237
F128.20566274647462
tp132
a(F31.375280399081049
F86.032925613128384
tp133
a(F58.762211123293312
F50.846196299324362
tp134
a(F96.090354730755223
F26.458502904572491
tp135
a(F139.31462765577254
F15.512630422246559
tp136
a(F183.75100923322123
F19.194733978517689
tp137
a(F224.5841280176827
F37.105800519340477
tp138
a(F257.38908199774147
F67.304888066184461
tp139
a(F278.61094538835096
F106.51945689622558
tp140
a(F285.94999999999999
F150.49999999999997
tp141
asg4
F0
sg5
(F0
F0
tp142
sg70
I01
sg7
(F1
F1
tp143
ssg21
(dp144
g47
(lp145
(F285.94999999999999
F150.5
tp146
a(F278.61094538835096
F194.48054310377438
tp147
a(F257.38908199774153
F233.6951119338155
tp148
a(F224.58412801768273
F263.89419948065949
tp149
a(F183.75100923322125
F281.80526602148234
tp150
a(F139.3146276557726
F285.48736957775344
tp151
a(F96.090354730755308
F274.54149709542753
tp152
a(F58.762211123293397
F250.1538037006757
tp153
a(F31.375280399081067
F214.96707438687164
tp154
a(F16.897361454101254
F172.79433725352544
tp155
a(F16.897361454101237
F128.20566274647462
tp156
a(F31.375280399081049
F86.032925613128384
tp157
a(F58.762211123293312
F50.846196299324362
tp158
a(F96.090354730755223
F26.458502904572491
tp159
a(F139.31462765577254
F15.512630422246559
tp160
a(F183.75100923322123
F19.194733978517689
tp161
a(F224.5841280176827
F37.105800519340477
tp162
a(F257.38908199774147
F67.304888066184461
tp163
a(F278.61094538835096
F106.51945689622558
tp164
a(F285.94999999999999
F150.49999999999997
tp165
asg4
F0
sg5
(F0
F0
tp166
sg70
I01
sg7
(F1
F1
tp167
ssg25
(dp168
g47
(lp169
(F285.94999999999999
F150.5
tp170
a(F278.61094538835096
F194.48054310377438
tp171
a(F257.38908199774153
F233.6951119338155
tp172
a(F224.58412801768273
F263.89419948065949
tp173
a(F183.75100923322125
F281.80526602148234
tp174
a(F139.3146276557726
F285.48736957775344
tp175
a(F96.090354730755308
F274.54149709542753
tp176
a(F58.762211123293397
F250.1538037006757
tp177
a(F31.375280399081067
F214.96707438687164
tp178
a(F16.897361454101254
F172.79433725352544
tp179
a(F16.897361454101237
F128.20566274647462
tp180
a(F31.375280399081049
F86.032925613128384
tp181
a(F58.762211123293312
F50.846196299324362
tp182
a(F96.090354730755223
F26.458502904572491
tp183
a(F139.31462765577254
F15.512630422246559
tp184
a(F183.75100923322123
F19.194733978517689
tp185
a(F224.5841280176827
F37.105800519340477
tp186
a(F257.38908199774147
F67.304888066184461
tp187
a(F278.61094538835096
F106.51945689622558
tp188
a(F216.95348967520184
F148.75325290316965
tp189
asg4
F0
sg5
(F0
F0
tp190
sg70
I01
sg7
(F1
F1
tp191
ssg29
(dp192
g47
(lp193
(F285.94999999999999
F150.5
tp194
a(F278.61094538835096
F194.48054310377438
tp195
a(F257.38908199774153
F233.6951119338155
tp196
a(F224.58412801768273
F263.89419948065949
tp197
a(F183.75100923322125
F281.80526602148234
tp198
a(F139.3146276557726
F285.48736957775344
tp199
a(F96.090354730755308
F274.54149709542753
tp200
a(F58.762211123293397
F250.1538037006757
tp201
a(F31.375280399081067
F214.96707438687164
tp202
a(F16.897361454101254
F172.79433725352544
tp203
a(F16.897361454101237
F128.20566274647462
tp204
a(F31.375280399081049
F86.032925613128384
tp205
a(F58.762211123293312
F50.846196299324362
tp206
a(F96.090354730755223
F26.458502904572491
tp207
a(F139.31462765577254
F15.512630422246559
tp208
a(F183.75100923322123
F19.194733978517689
tp209
a(F224.5841280176827
F37.105800519340477
tp210
a(F257.38908199774147
F67.304888066184461
tp211
a(F278.61094538835096
F106.51945689622558
tp212
a(F285.94999999999999
F150.49999999999997
tp213
asg4
F0
sg5
(F0
F0
tp214
sg70
I01
sg7
(F1
F1
tp215
ssg33
(dp216
g47
(lp217
(F285.94999999999999
F150.5
tp218
a(F278.61094538835096
F194.48054310377438
tp219
a(F257.38908199774153
F233.6951119338155
tp220
a(F224.58412801768273
F263.89419948065949
tp221
a(F183.75100923322125
F281.80526602148234
tp222
a(F139.3146276557726
F285.48736957775344
tp223
a(F96.090354730755308
F274.54149709542753
tp224
a(F58.762211123293397
F250.1538037006757
tp225
a(F31.375280399081067
F214.96707438687164
tp226
a(F16.897361454101254
F172.79433725352544
tp227
a(F16.897361454101237
F128.20566274647462
tp228
a(F31.375280399081049
F86.032925613128384
tp229
a(F58.762211123293312
F50.846196299324362
tp230
a(F96.090354730755223
F26.458502904572491
tp231
a(F139.31462765577254
F15.512630422246559
tp232
a(F183.75100923322123
F19.194733978517689
tp233
a(F224.5841280176827
F37.105800519340477
tp234
a(F257.38908199774147
F67.304888066184461
tp235
a(F278.61094538835096
F106.51945689622558
tp236
a(F285.94999999999999
F150.49999999999997
tp237
asg4
F0
sg5
(F0
F0
tp238
sg70
I01
sg7
(F1
F1
tp239
ssg37
(dp240
g47
(lp241
(F285.94999999999999
F150.5
tp242
a(F278.61094538835096
F194.48054310377438
tp243
a(F257.38908199774153
F233.6951119338155
tp244
a(F224.58412801768273
F263.89419948065949
tp245
a(F183.75100923322125
F281.80526602148234
tp246
a(F139.3146276557726
F285.48736957775344
tp247
a(F96.090354730755308
F274.54149709542753
tp248
a(F58.762211123293397
F250.1538037006757
tp249
a(F31.375280399081067
F214.96707438687164
tp250
a(F16.897361454101254
F172.79433725352544
tp251
a(F16.897361454101237
F128.20566274647462
tp252
a(F31.375280399081049
F86.032925613128384
tp253
a(F58.762211123293312
F50.846196299324362
tp254
a(F96.090354730755223
F26.458502904572491
tp255
a(F139.31462765577254
F15.512630422246559
tp256
a(F183.75100923322123
F19.194733978517689
tp257
a(F224.5841280176827
F37.105800519340477
tp258
a(F257.38908199774147
F67.304888066184461
tp259
a(F278.61094538835096
F106.51945689622558
tp260
a(F285.94999999999999
F150.49999999999997
tp261
asg4
F0
sg5
(F0
F0
tp262
sg70
I01
sg7
(F1
F1
tp263
ssg41
(dp264
g47
(lp265
(F285.94999999999999
F150.5
tp266
a(F278.61094538835096
F194.48054310377438
tp267
a(F257.38908199774153
F233.6951119338155
tp268
a(F224.58412801768273
F263.89419948065949
tp269
a(F183.75100923322125
F281.80526602148234
tp270
a(F139.3146276557726
F285.48736957775344
tp271
a(F96.090354730755308
F274.54149709542753
tp272
a(F58.762211123293397
F250.1538037006757
tp273
a(F31.375280399081067
F214.96707438687164
tp274
a(F16.897361454101254
F172.79433725352544
tp275
a(F16.897361454101237
F128.20566274647462
tp276
a(F31.375280399081049
F86.032925613128384
tp277
a(F58.762211123293312
F50.846196299324362
tp278
a(F96.090354730755223
F26.458502904572491
tp279
a(F139.31462765577254
F15.512630422246559
tp280
a(F183.75100923322123
F19.194733978517689
tp281
a(F224.5841280176827
F37.105800519340477
tp282
a(F257.38908199774147
F67.304888066184461
tp283
a(F278.61094538835096
F106.51945689622558
tp284
a(F285.94999999999999
F150.49999999999997
tp285
asg4
F0
sg5
(F0
F0
tp286
sg70
I01
sg7
(F1
F1
tp287
ss(dp288
g2
(L301L
L301L
tp289
sg9
(L301L
L301L
tp290
sg13
(L301L
L301L
tp291
sg17
(L301L
L301L
tp292
sg21
(L301L
L301L
tp293
sg25
(L301L
L301L
tp294
sg29
(L301L
L301L
tp295
sg33
(L301L
L301L
tp296
sg37
(L301L
L301L
tp297
sg41
(L301L
L301L
tp298
st.