((dp1
S'cam_110bL'
p2
(dp3
S'angle'
p4
F0
sS'pos'
p5
(F14.759758709509015
F148.38591161702942
tp6
sS'size'
p7
(F140.59693641118417
F137.03205548763225
tp8
ssS'cam_117L'
p9
(dp10
g4
F0
sg5
(F137.03205548763216
F5.1526496769421897
tp11
sg7
(F150.13265871385977
F287.25230581504087
tp12
ssS'cam_118bL'
p13
(dp14
sS'cam_109bL'
p15
(dp16
g4
F0
sg5
(F7.7727703221877391
F11.266264515848349
tp17
sg7
(F276.77182323405879
F255.81085807209487
tp18
ssS'cam_115bL'
p19
(dp20
g4
F0
sg5
(F0.65526829877950377
F12.139638064263522
tp21
sg7
(F281.13869097613463
F276.77182323405884
tp22
ssS'cam_111cL'
p23
(dp24
S'angle'
p25
F0
sS'pos'
p26
(F21.746747096830291
F24.36686774207584
tp27
sS'size'
p28
(F273.27832904039815
F272.404955491983
tp29
ssS'cam_119bL'
p30
(dp31
S'angle'
p32
F0
sS'pos'
p33
(F8.6461438706028275
F16.506505806339362
tp34
sS'size'
p35
(F123.93145226140473
F277.64519678247399
tp36
ssS'cam_120L'
p37
(dp38
S'angle'
p39
F0
sS'pos'
p40
(F12.113264313193042
F5.1211633818986115
tp41
sS'size'
p42
(F277.3010798417439
F278.62555334077001
tp43
ssS'cam_112bL'
p44
(dp45
g25
F0
sg26
(F20.873373548415145
F12.139638064263465
tp46
sg28
(F265.41796710466195
F256.68423162050999
tp47
ss(dp48
g2
(dp49
S'points'
p50
(lp51
(F297.30385612939716
F161.85385612939717
tp52
a(F288.49302064959625
F188.92843613026733
tp53
a(F251.5363653874808
F219.80837600781416
tp54
a(F232.06124909370166
F241.55547386955192
tp55
a(F209.01602774381618
F260.54506710031097
tp56
a(F210.76277484064653
F271.02554968129294
tp57
a(F196.63617446839746
F285.72853819103864
tp58
a(F169.77703245857862
F287.91888086038847
tp59
a(F140.18800120418774
F291.60098441665957
tp60
a(F96.090354730755294
F277.16161774067302
tp61
a(F64.875825962199556
F248.40705660384538
tp62
a(F36.615521689572049
F209.72683309638063
tp63
a(F23.88434984142258
F164.06060176937379
tp64
a(F29.124591131913562
F126.4589156496443
tp65
a(F42.729136528478207
F88.653046258373877
tp66
a(F58.762211123293298
F63.946799525551853
tp67
a(F74.256016020376038
F45.672720969706177
tp68
a(F117.48028894539337
F35.600222035795412
tp69
a(F147.94269374819942
F23.561601720593501
tp70
a(F196.63617446839734
F34.485679874095013
tp71
a(F247.78197296517462
F66.431514517769301
tp72
a(F278.61094538835101
F106.51945689622559
tp73
a(F291.19024129049097
F135.65264967694216
tp74
asg32
F0
sg33
(F0
F0
tp75
sS'closed'
p76
I01
sg35
(F1
F1
tp77
ssg9
(dp78
g50
(lp79
(F274.14137049982764
F191.91237547213302
tp80
a(F260.27010087163251
F213.75832510255316
tp81
a(F254.46797866078995
F209.72039584346209
tp82
a(F214.59377812539839
F248.54246225687331
tp83
a(F208.86340414620977
F265.64094657748984
tp84
a(F183.75100923322125
F281.80526602148234
tp85
a(F140.18800120418777
F281.9938753840928
tp86
a(F98.710475376000787
F270.17462935335169
tp87
a(F58.762211123293397
F250.1538037006757
tp88
a(F31.375280399081067
F214.96707438687164
tp89
a(F16.897361454101254
F172.79433725352544
tp90
a(F11.657120163610241
F121.21867435915328
tp91
a(F31.375280399081049
F86.032925613128384
tp92
a(F52.648596284387139
F49.972822750909188
tp93
a(F94.343607633924861
F19.471514517251194
tp94
a(F136.69450701052702
F8.5256420349252267
tp95
a(F186.37112987846672
F11.334372042781183
tp96
a(F232.5929591350972
F30.522445837016306
tp97
a(F224.58412801768267
F36.23242697092536
tp98
a(F245.69771677725308
F70.149633545804761
tp99
a(F247.78197296517462
F88.265853228148416
tp100
a(F256.77660667797187
F110.01295108988626
tp101
a(F264.111260886492
F109.43026069616113
tp102
a(F270.86155844448342
F124.85951225728438
tp103
a(F279.54051244761513
F123.41301992342909
tp104
a(F282.84771524346934
F150.53617319313514
tp105
asg32
F0
sg33
(F-0.87337354841525894
F0.87337354841508841
tp106
sg76
I01
sg35
(F1
F1
tp107
ssg13
(dp108
sg15
(dp109
g50
(lp110
(F277.21626451584831
F153.12012064524549
tp111
a(F269.00383635578419
F200.59415794268054
tp112
a(F242.54173167468369
F228.45487064332448
tp113
a(F204.49653640413393
F250.79359625443203
tp114
a(F166.28353826491792
F259.9709273111032
tp115
a(F123.59390378429961
F255.79266893163779
tp116
a(F79.496257310867136
F245.72016999772706
tp117
a(F33.434378219253574
F210.85199402199322
tp118
a(F17.401303624438395
F196.62622987015314
tp119
a(F6.4168788731192556
F171.92096370511027
tp120
a(F9.9103730667799077
F144.79976016636277
tp121
a(F13.380352898818916
F115.56505806339339
tp122
a(F27.008412657005213
F84.286178516298037
tp123
a(F51.775222735971965
F50.84619629932439
tp124
a(F89.103366343433862
F22.965008710911832
tp125
a(F139.31462765577254
F15.512630422246559
tp126
a(F160.16992342601174
F20.941481075348008
tp127
a(F216.72376608194617
F45.839536003492185
tp128
a(F241.66835812626843
F71.671755808260286
tp129
a(F264.63696861370835
F106.51945689622559
tp130
a(F271.10264967694218
F129.539034838036
tp131
asg32
F0
sg33
(F0
F0
tp132
sg76
I01
sg35
(F1
F1
tp133
ssg19
(dp134
g50
(lp135
(F273.76618883225251
F144.95950394653397
tp136
a(F270.19706355155313
F168.19820781242376
tp137
a(F254.84944791020803
F218.61108463434971
tp138
a(F241.10257110254736
F213.6984749944217
tp139
a(F209.50064791357107
F251.01804039159236
tp140
a(F177.61772330845912
F264.33779505317909
tp141
a(F158.21239693491282
F282.57139251344915
tp142
a(F149.40327303943334
F276.45777767454297
tp143
a(F120.82890465624899
F288.1074902229991
tp144
a(F96.090354730755308
F274.54149709542753
tp145
a(F68.359333201022253
F265.10392154514579
tp146
a(F58.795777416407546
F250.06458451932889
tp147
a(F43.877166594571662
F230.93958563554204
tp148
a(F21.210559470024272
F216.00301613113743
tp149
a(F39.581559351273896
F202.02903935649482
tp150
a(F33.467944512367737
F187.18168903343695
tp151
a(F14.781182979192909
F194.00610922490762
tp152
a(F5.5435053247040962
F136.9860217685036
tp153
a(F19.517482099346733
F94.144094358283127
tp154
a(F40.109015883232715
F57.211598515427852
tp155
a(F80.270613623185596
F81.503489675201934
tp156
a(F86.08066630722989
F46.47932855724855
tp157
a(F87.279918434249936
F27.331876452987672
tp158
a(F112.00634357978622
F12.892509777001067
tp159
a(F162.61695888265257
F11.825592504747647
tp160
a(F167.02152083039232
F17.939207343653834
tp161
a(F177.58462250638559
F15.701239784857023
tp162
a(F227.85678242400024
F38.403659341850101
tp163
a(F256.02882434649609
F69.925008711429911
tp164
a(F272.44226195972016
F105.64608334781042
tp165
a(F277.80674455240285
F140.92906416056832
tp166
asg32
F0
sg33
(F-0.87337354841515946
F-0.87337354841505999
tp167
sg76
I01
sg35
(F1
F1
tp168
ssg23
(dp169
g50
(lp170
(F292.93698838732132
F153.99349419366069
tp171
a(F284.72456022725714
F180.50656632913174
tp172
a(F273.2552223229182
F201.41928167544455
tp173
a(F266.12281748189321
F238.06197967589134
tp174
a(F240.30485188915574
F244.67998141552584
tp175
a(F223.0528189119037
F271.32478344050031
tp176
a(F200.28229225966444
F279.75928516544457
tp177
a(F192.59041410909768
F286.36074312616859
tp178
a(F147.00650580633933
F291.1131412948418
tp179
a(F96.090354730755308
F274.54149709542753
tp180
a(F84.090044027333221
F265.87452757214874
tp181
a(F76.263248384710863
F247.44446387408351
tp182
a(F65.392317800108685
F241.5944649025422
tp183
a(F57.5319558643722
F230.24060877314503
tp184
a(F38.235436650147086
F216.91386262063602
tp185
a(F37.858326616065234
F205.98253209330178
tp186
a(F29.584002315086884
F197.92578748178389
tp187
a(F26.504470486668062
F187.59506403870594
tp188
a(F30.457375863502044
F176.09144877140474
tp189
a(F21.723640379350385
F165.61096619042274
tp190
a(F22.114088382970575
F146.13313225792422
tp191
a(F30.847823867122234
F130.4124083864512
tp192
a(F33.122027495911361
F117.47437335607435
tp193
a(F44.431352638144709
F114.95530038234307
tp194
a(F37.444364250823376
F100.10795005928526
tp195
a(F57.015464026462972
F93.641500171667559
tp196
a(F52.421677309996895
F79.734289357897637
tp197
a(F64.036018706898545
F79.756742578371586
tp198
a(F65.951249588898563
F64.421549133495887
tp199
a(F80.630116126786703
F61.415898061653081
tp200
a(F91.110598707768702
F50.935415480671111
tp201
a(F118.18517870863883
F40.454932899689084
tp202
a(F173.2705266522392
F30.54859010791489
tp203
a(F202.7497893073035
F35.359053422510158
tp204
a(F238.17486393260779
F50.710790646296289
tp205
a(F282.10443958201159
F94.292227218413302
tp206
a(F288.57012064524548
F119.93192580546921
tp207
asg32
F0
sg33
(F0
F0
tp208
sg76
I01
sg35
(F1
F1
tp209
ssg30
(dp210
S'points'
p211
(lp212
(F272.84939677377253
F71.89638064263508
tp213
a(F289.96480151774819
F126.3574063273914
tp214
a(F262.29181419714126
F131.28578193486638
tp215
a(F264.03856129397161
F146.13313225792419
tp216
a(F284.12615290752046
F140.8928909674332
tp217
a(F288.49302064959625
F180.19470064611568
tp218
a(F267.86956457872355
F224.96137644966382
tp219
a(F224.58412801768273
F263.89419948065949
tp220
a(F176.76402084589992
F289.66562795721882
tp221
a(F128.8341450747906
F288.98086377141408
tp222
a(F90.850113440264295
F279.78173838591852
tp223
a(F51.775222735972065
F252.77392434592119
tp224
a(F25.261665560174901
F217.58719503211711
tp225
a(F12.530493712025422
F169.30084305986477
tp226
a(F15.150614357270907
F127.33228919805944
tp227
a(F31.375280399081049
F86.032925613128384
tp228
a(F70.116067252690456
F54.339690492985028
tp229
a(F110.06433150539786
F20.344888065666339
tp230
a(F148.92173668833934
F10.272389131755574
tp231
a(F173.27052665223923
F27.928469462669341
tp232
a(F224.5841280176827
F37.105800519340477
tp233
a(F179.65883618879164
F100.49308290596076
tp234
a(F187.78009635317366
F107.39283044464077
tp235
a(F240.53457548241133
F42.201679996519374
tp236
asS'angle'
p237
F0
sS'pos'
p238
(F0
F0
tp239
sS'closed'
p240
I01
sS'size'
p241
(F1
F1
tp242
ssg37
(dp243
g50
(lp244
(F295.91353741968646
F116.53971116850289
tp245
a(F290.07317271839321
F119.13542881352214
tp246
a(F291.37103154090283
F141.84795820744046
tp247
a(F284.32518387179522
F143.61803215359396
tp248
a(F281.7892039434588
F177.89459349378018
tp249
a(F275.62050881390667
F201.30856018154299
tp250
a(F243.99918451930179
F241.13415812942628
tp251
a(F198.29500906165947
F268.27032789774819
tp252
a(F150.73064967242681
F275.66146216252605
tp253
a(F132.56062615729212
F267.87430922746842
tp254
a(F115.5576881103096
F254.45832011733233
tp255
a(F95.637654554804456
F252.75644100700219
tp256
a(F73.786010569077362
F250.96089419060397
tp257
a(F61.42655672945007
F241.73551366987954
tp258
a(F55.315103865266465
F233.86215788468985
tp259
a(F62.428413036876279
F222.7655518373291
tp260
a(F49.99089157289562
F207.66530619262582
tp261
a(F38.371565471339579
F215.05978539382556
tp262
a(F19.092878236922534
F171.298501222939
tp263
a(F15.592647576255089
F142.06671831123856
tp264
a(F19.239801888602571
F139.00219636093269
tp265
a(F20.142008510375291
F126.73692948995921
tp266
a(F26.1362027115035
F127.05662698517474
tp267
a(F28.516687555657271
F121.67303025898383
tp268
a(F20.295838010210218
F116.67375640509781
tp269
a(F24.189414477739078
F100.45052112372758
tp270
a(F31.976567412796769
F99.152662301217958
tp271
a(F39.114790936599675
F88.769791721141019
tp272
a(F30.678708590287158
F80.982638786083299
tp273
a(F34.572285057816018
F75.142274084790017
tp274
a(F43.008367404128521
F79.684779963573675
tp275
a(F55.878597174119662
F64.694754287712783
tp276
a(F52.272917010745246
F55.388702178108019
tp277
a(F83.16045086099578
F27.63394871091424
tp278
a(F140.3211009963367
F7.0097243402844924
tp279
a(F163.74019414418345
F2.5323967267171383
tp280
a(F195.47723091541113
F8.4096257584259888
tp281
a(F197.74842934214868
F20.960002425373659
tp282
a(F215.45031025966284
F26.425276801424417
tp283
a(F221.93558453663815
F17.902440657771905
tp284
a(F253.73312568812378
F41.912828874199846
tp285
a(F247.29498927264098
F48.259638867632134
tp286
a(F260.87134921192666
F63.976428856863379
tp287
a(F269.30743155823939
F58.136064155570068
tp288
a(F274.71736892082208
F77.317633389759152
tp289
a(F283.3542823549808
F85.879894987441162
tp290
asg32
F0
sg33
(F-1.7467470968303473
F4.3668677420758968
tp291
sg76
I01
sg35
(F1
F1
tp292
ssg44
(dp293
g50
(lp294
(F278.08963806426351
F181.941447742946
tp295
a(F261.1434744200476
F218.06162891098387
tp296
a(F225.94763425479553
F256.40282419260978
tp297
a(F194.16867742075831
F274.51904387495364
tp298
a(F176.54858285484855
F274.37468206164152
tp299
a(F152.30956149027526
F268.70466279525482
tp300
a(F148.92173668833942
F257.53941602846817
tp301
a(F90.850113440264323
F228.2526990294237
tp302
a(F72.769754191050311
F246.57109032566831
tp303
a(F59.635584671708564
F244.91356241018471
tp304
a(F42.729136528478243
F220.20731567736266
tp305
a(F31.744711777159079
F197.24879660915013
tp306
a(F16.89736145410124
F155.2802427473448
tp307
a(F19.493967737725075
F115.56505806339339
tp308
a(F30.501906850665879
F99.133528839355876
tp309
a(F33.467944512367737
F83.250236772032252
tp310
a(F58.762211123293319
F57.833184686645723
tp311
a(F96.090354730755223
F26.458502904572491
tp312
a(F139.31462765577254
F15.512630422246559
tp313
a(F183.75100923322123
F19.194733978517689
tp314
a(F221.09063382402206
F40.5992947130012
tp315
a(F254.76896135249598
F67.304888066184446
tp316
a(F278.61094538835096
F106.51945689622558
tp317
a(F282.45650580633935
F138.27277032218768
tp318
asg32
F0
sg33
(F0
F0
tp319
sg76
I01
sg35
(F1
F1
tp320
ss(dp321
g2
(L301L
L301L
tp322
sg9
(L301L
L301L
tp323
sg13
(L301L
L301L
tp324
sg15
(L301L
L301L
tp325
sg19
(L301L
L301L
tp326
sg23
(L301L
L301L
tp327
sg30
(L301L
L301L
tp328
sg37
(L301L
L301L
tp329
sg44
(L301L
L301L
tp330
st.