((dp1
S'cam_111L'
p2
(dp3
S'angle'
p4
F0
sS'pos'
p5
(F1.6591554832816087
F4.279276128527016
tp6
sS'size'
p7
(F296.8594148476077
F197.29483032827875
tp8
ssS'cam_110L'
p9
(dp10
g4
F0
sg5
(F2.5325290316966687
F149.25928516544457
tp11
sg7
(F143.14567032653841
F140.52554968129289
tp12
ssS'cam_121L'
p13
(dp14
g4
F0
sg5
(F144.31686363174333
F0.21792193217180511
tp15
sg7
(F151.44289507776568
F299.05816105615816
tp16
ssS'cam_115L'
p17
(dp18
g4
F0
sg5
(F13.886385161093813
F0.78578193486634973
tp19
sg7
(F282.01206452454983
F297.73278839602278
tp20
ssS'cam_114L'
p21
(dp22
g4
F0
sg5
(F13.013011612678611
F3.4059025801118423
tp23
sg7
(F283.75881162137989
F288.99905291187116
tp24
ssS'cam_116L'
p25
(dp26
g4
F0
sg5
(F18.253252903169653
F15.235983474954423
tp27
sg7
(F277.64519678247404
F282.29044324856568
tp28
ssS'cam_123L'
p29
(dp30
g4
F0
sg5
(F13.886385161093926
F8.6461438706028275
tp31
sg7
(F279.39194387930434
F275.0250761372285
tp32
ssS'117'
p33
(dp34
S'angle'
p35
F0
sS'pos'
p36
(F144.89241742336873
F-0.087591613548852365
tp37
sS'size'
p38
(F150.13265871385971
F293.36947880270679
tp39
ssS'cam_112L'
p40
(dp41
g4
F0
sg5
(F20
F20
tp42
sg7
(F275.89844968564364
F270.65820839515266
tp43
ssS'cam_119L'
p44
(dp45
g4
F0
sg5
(F13.886385161093813
F6.899396773772537
tp46
sg7
(F283.75881162138012
F284.63218516979532
tp47
ssS'cam_120L'
p48
(dp49
g4
F0
sg5
(F11.266264515848263
F0.78578193486629289
tp50
sg7
(F286.37893226662572
F286.37893226662561
tp51
ssS'cam_118L'
p52
(dp53
g4
F0
sg5
(F13.88638516109387
F6.0260232253573349
tp54
sg7
(F280.26531742771954
F274.15170258881329
tp55
ss(dp56
g2
(dp57
S'points'
p58
(lp59
(F261.49554064437535
F125.17216709596019
tp60
a(F249.78961829065048
F125.48403277897626
tp61
a(F242.90731158386268
F120.02033283841658
tp62
a(F213.70548807739627
F155.71145045743111
tp63
a(F215.00334689990589
F166.09432103750805
tp64
a(F207.86512337610301
F169.33896809378209
tp65
a(F220.28434546630683
F203.28441050847488
tp66
a(F228.34018823045182
F214.11509747036396
tp67
a(F233.82229982629539
F232.28512098549862
tp68
a(F209.36830556488562
F253.16299427145975
tp69
a(F176.54858285484863
F270.88118786798083
tp70
a(F137.82602986383756
F280.67417249894243
tp71
a(F109.61992700965695
F279.37375473884725
tp72
a(F109.1909579569828
F267.5545087081062
tp73
a(F91.857611097288668
F261.18560369200748
tp74
a(F95.302364766575607
F252.85532081923625
tp75
a(F79.728058896460183
F243.12137965041416
tp76
a(F59.279245083037878
F229.24352143447746
tp77
a(F47.281588333719725
F234.68529730410162
tp78
a(F36.898717753642771
F224.30242672402471
tp79
a(F20.026553061017729
F195.74953262881311
tp80
a(F20.142008510375298
F187.07078430113125
tp81
a(F22.622270706036971
F178.22843852493327
tp82
a(F28.06255313346206
F153.12023262292982
tp83
a(F7.1634202852790949
F151.56712155164777
tp84
a(F5.4181039488886817
F134.70263145723908
tp85
a(F16.967178411699557
F95.072679018536519
tp86
a(F59.893595101983081
F104.21120193399628
tp87
a(F47.666365424170763
F78.009995481541296
tp88
a(F33.692388649528105
F68.402886448974471
tp89
a(F60.508958220123645
F53.466316944569883
tp90
a(F87.356619246603543
F36.065611937139352
tp91
a(F101.75956507392036
F42.587210423116744
tp92
a(F110.38763116634726
F72.470520431842829
tp93
a(F118.90592865944757
F65.927127617040981
tp94
a(F109.67588736164748
F43.075053544934633
tp95
a(F121.14280844497554
F20.142716451765523
tp96
a(F147.2309499434997
F23.860835479800983
tp97
a(F199.63336284840966
F43.075053544934633
tp98
a(F236.68901506442302
F78.57150334694029
tp99
a(F248.39493741814789
F99.844334191920353
tp100
asS'angle'
p101
F0
sS'pos'
p102
(F0.64892941125480519
F-2.8421709430404007e-14
tp103
sS'closed'
p104
I01
sS'size'
p105
(F1
F1
tp106
ssg9
(dp107
S'points'
p108
(lp109
(F278.88591161702942
F169.71421806513368
tp110
a(F267.53205548763231
F198.53554516283418
tp111
a(F252.76180516022364
F221.24325742162847
tp112
a(F247.16949764540502
F218.06162891098387
tp113
a(F203.23992199600124
F259.89631838627042
tp114
a(F203.62316285571876
F264.7675730290747
tp115
a(F179.38414149114541
F278.31177182782164
tp116
a(F139.3146276557726
F285.48736957775344
tp117
a(F135.75889406349157
F290.70832783659904
tp118
a(F114.62184688304902
F284.97624724529254
tp119
a(F96.963728279170468
F278.03499128908817
tp120
a(F65.782765803728878
F260.54506710031097
tp121
a(F61.38233176853889
F246.66030950701503
tp122
a(F47.782422761716823
F234.74957377855881
tp123
a(F32.663127095981011
F212.93913589589329
tp124
a(F23.296271690741044
F193.89479996934747
tp125
a(F20.390855647761921
F169.30084305986477
tp126
a(F17.933359786439642
F147.95692789743816
tp127
a(F23.884349841422566
F126.4589156496443
tp128
a(F35.742148141156889
F88.653046258373877
tp129
a(F54.428909674331706
F53.555536125916603
tp130
a(F70.916316909654654
F37.488739231299718
tp131
a(F82.488255580497082
F44.721200900576235
tp132
a(F101.55751499563644
F38.618966621512072
tp133
a(F117.05131989271919
F22.965008710911832
tp134
a(F171.62944894713368
F24.246365906398239
tp135
a(F206.45872149201554
F36.662204946821021
tp136
a(F233.3178635018343
F54.573271487643808
tp137
a(F259.13582909457182
F81.278864840827111
tp138
a(F275.99082474310552
F110.88632463830143
tp139
a(F283.3298793547545
F135.65264967694216
tp140
asg35
F0
sg36
(F0
F0
tp141
sS'closed'
p142
I01
sg38
(F1
F1
tp143
ssg13
(dp144
g58
(lp145
(F285.94999999999999
F179.98540055729566
tp146
a(F278.61094538835101
F189.24030181328337
tp147
a(F243.41510522309889
F228.45487064332448
tp148
a(F225.61012516370428
F255.30482580981996
tp149
a(F219.49651032479812
F257.92494645506548
tp150
a(F210.61015124304009
F265.64094657748984
tp151
a(F196.78879806600378
F266.97240888822085
tp152
a(F195.29938652845163
F270.66144891415826
tp153
a(F196.37415163932161
F285.34990542938112
tp154
a(F190.28381601105849
F272.45272409894153
tp155
a(F183.17307632831779
F271.85439514175522
tp156
a(F171.46096516196397
F278.88591161702948
tp157
a(F163.60060322622749
F288.4930206495963
tp158
a(F163.66341761967243
F276.56502473099135
tp159
a(F151.37337354841517
F275.39241742336878
tp160
a(F135.65264967694216
F278.88591161702948
tp161
a(F125.17216709596016
F271.02554968129294
tp162
a(F113.98679475173279
F277.62700764201696
tp163
a(F97.542509714161056
F273.18985357312908
tp164
a(F102.78275100465204
F265.32949163739266
tp165
a(F94.343607633924961
F261.44089386920001
tp166
a(F79.20166519744258
F267.9496122826381
tp167
a(F57.888837574878224
F247.53368305543017
tp168
a(F32.912867131438787
F219.914067119804
tp169
a(F33.99540104432657
F211.47358019321095
tp170
a(F24.179131647287129
F207.68683744199166
tp171
a(F16.023987905686091
F176.28783144718608
tp172
a(F14.277240808855737
F123.83879500439878
tp173
a(F34.868774592741701
F79.045937225807052
tp174
a(F58.762211123293312
F50.846196299324362
tp175
a(F86.483245698188384
F26.45850290457247
tp176
a(F102.78275100465204
F23.405018726391575
tp177
a(F113.26323358563404
F13.797909693824749
tp178
a(F138.44125410735734
F12.019136228585921
tp179
a(F184.62438278163637
F11.334372042781183
tp180
a(F225.4575015660979
F29.245438583603971
tp181
a(F252.12962778364539
F52.226345824092135
tp182
a(F271.36305877238414
F80.405491292411909
tp183
a(F281.50393005606156
F105.55512867365536
tp184
a(F289.44349419366068
F133.90590258011181
tp185
asg101
F0
sg102
(F0
F0
tp186
sg104
I01
sg105
(F1
F1
tp187
ssg17
(dp188
g58
(lp189
(F270.9877780034559
F142.60327172404615
tp190
a(F262.890221516878
F193.60716955535921
tp191
a(F253.2329092209238
F215.35426741709699
tp192
a(F238.7107283899318
F209.88940129223133
tp193
a(F223.71075446926758
F230.70600464088318
tp194
a(F210.82558923409138
F248.61707118170602
tp195
a(F197.83065539958872
F254.04592183480747
tp196
a(F198.53554516283413
F260.54506710031097
tp197
a(F168.58035924921407
F271.92137645018204
tp198
a(F121.6786729022995
F285.87290000435075
tp199
a(F94.604092901429368
F274.51904387495364
tp200
a(F67.529512900559197
F264.03856129397161
tp201
a(F59.635584671708543
F249.28043015226052
tp202
a(F50.935415480671054
F214.25626903430714
tp203
a(F43.602510076893395
F213.2203272900413
tp204
a(F44.821800641764895
F230.8503664541953
tp205
a(F19.779608995167994
F208.44544179297037
tp206
a(F37.477564037574709
F200.65828885791265
tp207
a(F31.578245690105803
F188.32863004407128
tp208
a(F14.535770464084514
F195.46685356787418
tp209
a(F12.309002739403216
F183.82613724485719
tp210
a(F11.653522923017764
F110.03563923133999
tp211
a(F21.76817136651422
F80.792684322637399
tp212
a(F42.16811370340514
F55.21306404140023
tp213
a(F76.263248384710877
F76.26324838471092
tp214
a(F86.743730965692876
F70.149633545804761
tp215
a(F96.090354730755195
F30.82537064664831
tp216
a(F88.490478062523195
F21.240714834555433
tp217
a(F123.59390378429953
F5.9055213896797341
tp218
a(F163.60060322622749
F10.760232253573463
tp219
a(F171.46096516196397
F18.620594189309941
tp220
a(F177.57458000087016
F11.633605801988608
tp221
a(F191.6113711689577
F15.701239784857023
tp222
a(F224.5841280176827
F37.105800519340477
tp223
a(F257.38908199774147
F67.304888066184461
tp224
a(F272.62374752859967
F107.39283044464077
tp225
a(F276.38502996048476
F139.92946678008056
tp226
asg101
F0
sg102
(F0
F0
tp227
sg104
I01
sg105
(F1
F1
tp228
ssg21
(dp229
g58
(lp230
(F278.42760340474376
F152.62858863007835
tp231
a(F274.45322958580186
F158.36036193573602
tp232
a(F268.04271042183359
F187.49355471645305
tp233
a(F260.34716798346733
F210.49586765985401
tp234
a(F265.9526538843827
F217.95790703636658
tp235
a(F262.71908844122578
F226.69579586539271
tp236
a(F266.37785201131328
F228.69148508544043
tp237
a(F260.05816948116217
F240.33300553571868
tp238
a(F248.41664903088395
F243.65915423579818
tp239
a(F243.41228711916955
F250.10538283414655
tp240
a(F234.84382101144479
F261.50211339551618
tp241
a(F226.24720236772248
F256.90928721049249
tp242
a(F216.5437748095444
F263.95696466433492
tp243
a(F211.63614838906136
F280.63265871385931
tp244
a(F188.11787697529709
F290.53900150563396
tp245
a(F157.48698838732111
F290.23976774642608
tp246
a(F138.44125410735742
F288.98086377141408
tp247
a(F135.39216440943773
F278.1533367037531
tp248
a(F104.42050202281604
F269.78835743625712
tp249
a(F101.94872443276653
F262.59033346730797
tp250
a(F80.812025475096661
F252.71209590508386
tp251
a(F62.107362261758048
F240.66677557558165
tp252
a(F64.03601870689846
F235.21723419627065
tp253
a(F46.568547738595157
F222.99000451845831
tp254
a(F37.488895237987222
F221.95406277419295
tp255
a(F40.47844726131072
F202.48903789964109
tp256
a(F32.594570963952506
F194.16867742075783
tp257
a(F29.124591131913547
F170.12759307040258
tp258
a(F42.21958167668317
F158.6138848057422
tp259
a(F42.201679996519331
F134.77927612852653
tp260
a(F30.84782386712218
F126.91891419279006
tp261
a(F35.214691609198013
F111.19819032131704
tp262
a(F30.84782386712218
F95.477466449844059
tp263
a(F40.454932899688998
F79.756742578371075
tp264
a(F36.961438706028332
F69.276259997389076
tp265
a(F47.441921287010317
F59.669150964822279
tp266
a(F53.576785003226419
F56.096143949702537
tp267
a(F59.308865594532868
F61.11171446709568
tp268
a(F65.040946185839317
F55.379633875789239
tp269
a(F62.891415964099409
F48.93104321056947
tp270
a(F69.242693704275297
F43.23175401399557
tp271
a(F95.4774664498444
F35.214691609197587
tp272
a(F102.46445483716573
F18.620594189309429
tp273
a(F115.30457279588884
F15.978020323590499
tp274
a(F119.05855225705386
F36.088065157612789
tp275
a(F127.79228774120551
F35.214691609197587
tp276
a(F126.04554064437519
F16.000473544063937
tp277
a(F138.44125410735737
F16.386003970661761
tp278
a(F146.13313225792399
F11.633605801988097
tp279
a(F160.10710903256663
F7.2667380599123135
tp280
a(F193.29530387234288
F10.760232253572951
tp281
a(F197.72498600786383
F22.688228172178356
tp282
a(F206.39590709857038
F23.860835479800471
tp283
a(F208.1426541954007
F29.974450318706602
tp284
a(F218.47051317877651
F31.86555922884952
tp285
a(F232.59711355102533
F43.948427093349267
tp286
a(F236.96398129310117
F53.555536125916092
tp287
a(F253.02221425566566
F62.938020324108606
tp288
a(F253.55807871298933
F90.237225159353073
tp289
a(F275.07665287987214
F122.40545014412537
tp290
a(F279.92005790788437
F130.91236875004026
tp291
asg101
F0
sg102
(F1.7467470968303331
F1.7467470968303473
tp292
sg104
I01
sg105
(F1
F1
tp293
ssg25
(dp294
S'points'
p295
(lp296
(F282.75751433260234
F163.60060322622752
tp297
a(F285.94999999999999
F187.18168903343698
tp298
a(F279.47655348088756
F219.80837600781416
tp299
a(F256.48852935375146
F252.90932999894915
tp300
a(F219.28952853604187
F280.48829690054765
tp301
a(F180.25751503956059
F294.03249569929466
tp302
a(F134.06273818146377
F297.71459925556576
tp303
a(F96.967611007109738
F286.76872677323985
tp304
a(F62.289271610068212
F267.53205548763231
tp305
a(F40.421366606574907
F238.79994757127855
tp306
a(F31.375280399081067
F214.96707438687164
tp307
a(F20.390855647761921
F181.52807273767709
tp308
a(F23.884349841422566
F118.59855371390779
tp309
a(F64.563475238857365
F57.211598515427909
tp310
a(F90.20365886623928
F38.618966621512072
tp311
a(F102.46445483716586
F41.328306448104286
tp312
a(F130.41240838645118
F31.721197415537461
tp313
a(F163.60060322622749
F33.467944512367751
tp314
a(F180.8075889270263
F39.559106130799989
tp315
a(F195.21053475434314
F35.600222035795412
tp316
a(F233.53330149288567
F58.496543657200164
tp317
a(F242.92497253440118
F74.660863101192632
tp318
a(F259.67169355189577
F83.250236772032252
tp319
a(F266.12281748189315
F96.999588712300095
tp320
a(F278.61094538835101
F125.73367496135924
tp321
a(F278.01253806861428
F134.77927612852704
tp322
a(F289.43184600984279
F153.12012064524549
tp323
asg4
F0
sg5
(F0
F0
tp324
sS'closed'
p325
I01
sg7
(F1
F1
tp326
ssg29
(dp327
g295
(lp328
(F287.89678823376448
F164.77644704760581
tp329
a(F279.25987479960577
F197.72519016004844
tp330
a(F257.38908199774153
F233.6951119338155
tp331
a(F224.58412801768273
F263.89419948065949
tp332
a(F198.21593257177426
F275.53713257477602
tp333
a(F194.5389834726885
F270.03039989372814
tp334
a(F178.62756780028016
F270.51256400501325
tp335
a(F157.89451101502084
F265.69092289216223
tp336
a(F156.67253566203624
F256.55752290064743
tp337
a(F134.66348363356337
F248.98679919731717
tp338
a(F105.82078699622993
F230.97510687963498
tp339
a(F84.60556609968549
F239.65406088276677
tp340
a(F76.40877620783877
F251.2259995536092
tp341
a(F62.006858179567445
F237.82414488683432
tp342
a(F36.573241180785544
F200.75820800192434
tp343
a(F25.333443800413789
F168.25183137474178
tp344
a(F23.635502704035954
F128.63014802056907
tp345
a(F34.868774592741715
F93.89328754886489
tp346
a(F61.382331768538805
F56.086437589815375
tp347
a(F93.750622542722681
F36.702957298393784
tp348
a(F111.66466060087066
F22.564926437043653
tp349
a(F145.15499235706582
F14.214771599736935
tp350
a(F185.69779746698566
F16.599016333498469
tp351
a(F227.17984566270195
F35.159012285576068
tp352
a(F258.6869408202511
F65.358099832420038
tp353
a(F279.25987479960577
F102.62588042869672
tp354
a(F287.89678823376448
F136.22355295239419
tp355
asg4
F0
sg5
(F0
F0
tp356
sg325
I01
sg7
(F1
F1
tp357
ssg33
(dp358
g108
(lp359
(F277.13916452019913
F169.71421806513368
tp360
a(F271.10264967694218
F189.80180967868247
tp361
a(F257.64998022638702
F210.20126697524736
tp362
a(F253.55807871298961
F207.26928064698583
tp363
a(F205.52253355015546
F250.93795806774415
tp364
a(F212.50952193747679
F262.29181419714126
tp365
a(F179.65883618879175
F276.49041580615864
tp366
a(F178.29532995167895
F271.75456141639603
tp367
a(F154.92968213552075
F276.57060881272594
tp368
a(F145.04879507112565
F278.60636867932976
tp369
a(F127.24960338958422
F273.31391216180623
tp370
a(F96.090354730755308
F274.54149709542753
tp371
a(F58.762211123293397
F250.1538037006757
tp372
a(F31.375280399081067
F214.96707438687164
tp373
a(F10.783746615195088
F172.79433725352544
tp374
a(F16.897361454101237
F128.20566274647462
tp375
a(F31.375280399081049
F86.032925613128384
tp376
a(F58.762211123293312
F50.846196299324362
tp377
a(F82.989751504527703
F21.218261614081484
tp378
a(F120.10040959063886
F8.5256420349252267
tp379
a(F177.57458000087016
F6.393364511497623
tp380
a(F215.19245697616719
F19.194733978517718
tp381
a(F226.48349871211946
F28.227703221876766
tp382
a(F224.05475959666427
F36.578675646447792
tp383
a(F249.03858737330731
F73.787489552777487
tp384
a(F251.81394261238034
F80.458055572156269
tp385
a(F248.31783742249863
F81.503489675201905
tp386
a(F250.06458451932892
F102.4644548371659
tp387
a(F261.75594973981731
F110.10019193852759
tp388
a(F264.03856129397161
F120.80529935388438
tp389
a(F275.99082474310552
F126.60704850977442
tp390
a(F279.83638516109386
F147.87987935475448
tp391
asg35
F0
sg36
(F0
F0
tp392
sg142
I01
sg38
(F1
F1
tp393
ssg40
(dp394
g58
(lp395
(F288.49302064959625
F196.78879806600384
tp396
a(F280.63265871385977
F202.02903935649482
tp397
a(F283.3298793547545
F214.25626903430714
tp398
a(F266.3837157105387
F240.76934116977816
tp399
a(F245.16185231992924
F259.02294483785528
tp400
a(F206.24328350096431
F285.5518281618223
tp401
a(F168.41294146742428
F292.98241212166312
tp402
a(F133.20101281686644
F294.22110506190512
tp403
a(F103.07734311807664
F286.76872677323985
tp404
a(F75.356308543181555
F272.86151595947001
tp405
a(F75.836064191081931
F260.54450617127281
tp406
a(F57.877875780039432
F254.18553261099706
tp407
a(F52.637634489548446
F234.09794099744823
tp408
a(F33.99540104432657
F225.44755696785361
tp409
a(F36.043537069660275
F216.6304700291449
tp410
a(F28.183175133923779
F201.78311970608709
tp411
a(F19.517482099346754
F192.00855531865909
tp412
a(F27.309801585508612
F179.07540744729275
tp413
a(F16.897361454101233
F164.88735177991157
tp414
a(F22.429197573865242
F149.83789547492788
tp415
a(F20.443493020269877
F142.48819884659139
tp416
a(F27.497473409563728
F138.18355114084093
tp417
a(F36.413350946174702
F130.26008075369452
tp418
a(F30.819689597250914
F121.31022259541643
tp419
a(F43.125744564883263
F117.95402578606218
tp420
a(F44.803842969560392
F110.12289989756889
tp421
a(F39.210181620636597
F100.05430946950608
tp422
a(F56.210119467603974
F99.634994344563211
tp423
a(F62.948472837977107
F79.268899456553726
tp424
a(F69.339074390834469
F73.520604009474368
tp425
a(F80.585588038833734
F68.156966798566685
tp426
a(F84.079082232494414
F60.296604862830179
tp427
a(F106.05071832717994
F50.306839724587348
tp428
a(F125.12763900800722
F48.94274873343295
tp429
a(F133.86137449215886
F39.335639700866125
tp430
a(F174.03655771925648
F36.715519055620689
tp431
a(F196.7442699780508
F38.462266152450979
tp432
a(F228.02207948687678
F51.470134766202278
tp433
a(F229.88793324181881
F57.83885730459977
tp434
a(F242.2528113382117
F61.933046906444787
tp435
a(F250.85093222517145
F65.515597276011306
tp436
a(F257.65777792734787
F75.904993347754257
tp437
a(F269.92800829122439
F78.410794211840724
tp438
a(F270.1521761328778
F85.870357417277745
tp439
a(F278.01253806861428
F88.490478062523238
tp440
a(F290.83817506616333
F117.87331302562276
tp441
a(F292.85988839167209
F134.77927612852704
tp442
a(F278.57190420350662
F138.41006770649412
tp443
a(F294.60663548850243
F143.5130116126787
tp444
a(F294.68373548415167
F163.60060322622746
tp445
asg101
F0
sg102
(F-1.7022190088773925
F1.119293198822902
tp446
sg104
I01
sg105
(F1
F1
tp447
ssg44
(dp448
S'points'
p449
(lp450
(F294.68373548415161
F159.23373548415165
tp451
a(F290.23976774642654
F187.18168903343695
tp452
a(F281.23106603359651
F213.69476116890803
tp453
a(F265.24944393347806
F236.31523257906099
tp454
a(F220.21726027560692
F256.03383754492302
tp455
a(F174.14390020065443
F287.91888086038847
tp456
a(F141.06137475260289
F294.22110506190506
tp457
a(F102.20396956966145
F282.40185903116401
tp458
a(F65.749199510614716
F254.52067144275151
tp459
a(F35.742148141156903
F221.95406277419295
tp460
a(F18.644108550931591
F172.79433725352541
tp461
a(F19.517482099346736
F139.55951887587176
tp462
a(F31.375280399081046
F99.133528839355876
tp463
a(F62.255705316953964
F56.959811138230577
tp464
a(F94.343607633924861
F35.192238388724149
tp465
a(F119.22703604222372
F20.752871712737544
tp466
a(F155.8030556839359
F14.827866236441878
tp467
a(F173.20771225879429
F28.227703221876766
tp468
a(F187.90243898424569
F36.23242697092536
tp469
a(F200.28229225966447
F34.341318060782953
tp470
a(F226.48349871211946
F41.328306448104286
tp471
a(F183.68819483977632
F111.19819032131753
tp472
a(F192.42193032392797
F111.19819032131753
tp473
a(F246.57109032566825
F43.948427093349721
tp474
a(F262.6293232882324
F63.811393872523752
tp475
a(F282.97781313042674
F91.672106573167696
tp476
a(F292.93698838732121
F119.93192580546912
tp477
asS'angle'
p478
F0
sS'pos'
p479
(F0.87337354841517367
F-0.87337354841517367
tp480
sS'closed'
p481
I01
sS'size'
p482
(F1
F1
tp483
ssg48
(dp484
g449
(lp485
(F287.6196471011811
F174.08108580720952
tp486
a(F281.58313225792415
F203.77578645332514
tp487
a(F269.00383635578419
F207.58114633000184
tp488
a(F257.38908199774153
F233.6951119338155
tp489
a(F227.20424866292825
F257.78058464175336
tp490
a(F193.35811826578808
F267.83128924683967
tp491
a(F154.16197797883041
F275.88026054518662
tp492
a(F136.36001935889757
F273.29921118824683
tp493
a(F129.11454956394155
F264.28740843135824
tp494
a(F112.73325815109598
F258.62073208702043
tp495
a(F104.6600902083169
F262.74070247146204
tp496
a(F95.477466449844528
F253.5580787129897
tp497
a(F76.932234638428071
F255.34523899071419
tp498
a(F58.48849000832044
F238.25702298048711
tp499
a(F64.328854709613722
F226.57629357790054
tp500
a(F51.999195895772353
F210.35305829653032
tp501
a(F43.704939212922454
F211.72242733059761
tp502
a(F35.127031203147297
F189.58731713637638
tp503
a(F23.386655566649349
F178.63470195481872
tp504
a(F16.672917316940886
F136.99302136620284
tp505
a(F28.637737090599199
F137.02403482473684
tp506
a(F30.584525324363621
F117.85380562493154
tp507
a(F17.747220640894749
F114.69168451497822
tp508
a(F30.453100850213364
F82.139349145599596
tp509
a(F64.875825962199471
F44.732581460418203
tp510
a(F99.983931198284068
F26.45850290457247
tp511
a(F146.45285117957545
F10.970124543462902
tp512
a(F177.33775117668603
F6.3838783061202662
tp513
a(F192.91205704680146
F14.819960652432798
tp514
a(F192.91205704680144
F22.607113587490488
tp515
a(F213.0288687957005
F29.745337111293395
tp516
a(F218.86923349699379
F21.309254764980892
tp517
a(F250.92251756620661
F45.421780766540081
tp518
a(F244.70093976658183
F49.435459333181853
tp519
a(F256.85153176971625
F66.680542352370367
tp520
a(F265.78530839080196
F64.236059843832635
tp521
a(F274.85655296604477
F77.785370647166445
tp522
a(F289.09142796933298
F104.77270979939527
tp523
a(F290.23976774642659
F120.80529935388438
tp524
a(F291.98651484325694
F143.5130116126787
tp525
a(F281.50603226227497
F146.13313225792419
tp526
a(F280.709758709509
F164.47397677464267
tp527
asg478
F0
sg479
(F0
F0
tp528
sg481
I01
sg482
(F1
F1
tp529
ssg52
(dp530
g295
(lp531
(F251.2341839874727
F209.80618568806742
tp532
a(F227.21885973440575
F189.57777315202776
tp533
a(F215.13946841798167
F193.78611089474805
tp534
a(F223.33625830982839
F206.32237778816065
tp535
a(F246.96229976279832
F217.89431645900305
tp536
a(F246.48013565151322
F224.16244990570937
tp537
a(F249.19229210589481
F238.51675304666651
tp538
a(F223.13763568382743
F263.41203536937439
tp539
a(F209.83566319384556
F266.11072758751311
tp540
a(F174.58989111880433
F282.28743013276744
tp541
a(F151.8508945491852
F285.00520546646834
tp542
a(F99.58384892441596
F280.6551119343336
tp543
a(F58.762211123293383
F252.77392434592119
tp544
a(F30.696970420736402
F223.24528482502836
tp545
a(F14.781182979192909
F187.89249438600149
tp546
a(F15.150614357270921
F169.30084305986477
tp547
a(F16.897361454101237
F128.20566274647462
tp548
a(F31.375280399081049
F86.032925613128384
tp549
a(F70.98944080110563
F38.618966621512072
tp550
a(F101.13795941070333
F23.72967935570631
tp551
a(F124.53803729657616
F15.850892456300272
tp552
a(F153.29738688304045
F15.03046631096143
tp553
a(F152.56275401823939
F31.944601036177062
tp554
a(F167.69473855667121
F33.391093370032365
tp555
a(F178.78451311622854
F16.033185363768723
tp556
a(F216.87547790775147
F29.051616368466455
tp557
a(F243.53935903257371
F50.053237100764122
tp558
a(F252.54964647221851
F62.178334306165695
tp559
a(F267.27779975305174
F76.138067741183505
tp560
a(F261.97399452891563
F83.370529410460023
tp561
a(F259.79990255416698
F95.752570632005387
tp562
a(F250.16326282253004
F110.85893389779147
tp563
a(F236.3546893145261
F138.81940220824657
tp564
a(F230.08655586781984
F139.30156631953164
tp565
a(F234.84060420377926
F163.03626689341263
tp566
asg4
F0
sg5
(F0.1508534463858382
F-1.1286538549847194
tp567
sg325
I01
sg7
(F1
F1
tp568
ss(dp569
g2
(L301L
L301L
tp570
sg9
(L301L
L301L
tp571
sg13
(L301L
L301L
tp572
sg17
(L301L
L301L
tp573
sg21
(L301L
L301L
tp574
sg25
(L301L
L301L
tp575
sg29
(L301L
L301L
tp576
sg33
(L301L
L301L
tp577
sg40
(L301L
L301L
tp578
sg44
(L301L
L301L
tp579
sg48
(L301L
L301L
tp580
sg52
(L301L
L301L
tp581
st.