((dp1
S'cam_110bL'
p2
(dp3
S'angle'
p4
F0
sS'pos'
p5
(F14.759758709509015
F148.38591161702942
tp6
sS'size'
p7
(F140.59693641118417
F137.03205548763225
tp8
ssS'cam_111cL'
p9
(dp10
S'angle'
p11
F0
sS'pos'
p12
(F21.746747096830291
F24.36686774207584
tp13
sS'size'
p14
(F273.27832904039815
F272.404955491983
tp15
ssS'cam_118bL'
p16
(dp17
sS'cam_109bL'
p18
(dp19
g4
F0
sg5
(F7.7727703221877391
F11.266264515848349
tp20
sg7
(F276.77182323405879
F255.81085807209487
tp21
ssS'cam_115bL'
p22
(dp23
g4
F0
sg5
(F0.65526829877950377
F12.139638064263522
tp24
sg7
(F281.13869097613463
F276.77182323405884
tp25
ssS'cam_117L'
p26
(dp27
g4
F0
sg5
(F137.03205548763216
F5.1526496769421897
tp28
sg7
(F150.13265871385977
F287.25230581504087
tp29
ssS'cam_119bL'
p30
(dp31
S'angle'
p32
F0
sS'pos'
p33
(F9.2205966614145609
F8.6461438706028275
tp34
sS'size'
p35
(F283.1671571514396
F279.39194387930434
tp36
ssS'cam_120L'
p37
(dp38
S'angle'
p39
F0
sS'pos'
p40
(F12.113264313193042
F5.1211633818986115
tp41
sS'size'
p42
(F277.3010798417439
F278.62555334077001
tp43
ssS'cam_112bL'
p44
(dp45
g11
F0
sg12
(F20.873373548415145
F12.139638064263465
tp46
sg14
(F265.41796710466195
F256.68423162050999
tp47
ss(dp48
g2
(dp49
S'points'
p50
(lp51
(F292.06361483890618
F174.95445935562466
tp52
a(F280.3576924851813
F195.35391665218953
tp53
a(F249.52872006200502
F218.84776161075763
tp54
a(F207.9900305977946
F256.90721109333816
tp55
a(F187.24450342688192
F275.69165118257615
tp56
a(F141.93474830101809
F284.6139960293383
tp57
a(F103.07734311807663
F271.92137645018204
tp58
a(F68.369320155860223
F243.16681531335436
tp59
a(F36.615521689572063
F204.48659180588965
tp60
a(F28.251217583498413
F160.56710757571312
tp61
a(F30.871338228743891
F128.20566274647462
tp62
a(F42.729136528478207
F88.653046258373877
tp63
a(F58.762211123293298
F63.946799525551853
tp64
a(F74.256016020376038
F45.672720969706177
tp65
a(F117.48028894539337
F35.600222035795412
tp66
a(F147.94269374819942
F23.561601720593501
tp67
a(F196.63617446839734
F34.485679874095013
tp68
a(F247.78197296517462
F66.431514517769301
tp69
a(F274.24407764627517
F104.77270979939527
tp70
a(F286.82337354841519
F134.77927612852699
tp71
asS'angle'
p72
F0
sS'pos'
p73
(F0
F0
tp74
sS'closed'
p75
I01
sS'size'
p76
(F1
F1
tp77
ssg9
(dp78
S'points'
p79
(lp80
(F287.69674709683034
F133.90590258011184
tp81
a(F289.96480151774819
F170.02608374814972
tp82
a(F266.12281748189321
F222.34125580441832
tp83
a(F244.67171963123158
F240.31311367345003
tp84
a(F223.0528189119037
F271.32478344050031
tp85
a(F197.66217161441895
F270.1521761328778
tp86
a(F170.75607539871856
F286.36074312616859
tp87
a(F147.00650580633933
F291.98651484325694
tp88
a(F96.090354730755308
F274.54149709542753
tp89
a(F58.762211123293397
F250.1538037006757
tp90
a(F46.568547738595214
F235.21723419627114
tp91
a(F47.969377818969221
F214.96707438687162
tp92
a(F37.858326616065241
F199.8689172543956
tp93
a(F25.631096938252899
F164.8873517799116
tp94
a(F22.114088382970575
F146.13313225792422
tp95
a(F30.847823867122234
F130.4124083864512
tp96
a(F33.122027495911368
F101.75364948460137
tp97
a(F52.648596284387139
F91.02137952642201
tp98
a(F52.421677309996895
F79.734289357897637
tp99
a(F64.036018706898545
F79.756742578371586
tp100
a(F65.951249588898563
F64.421549133495887
tp101
a(F80.630116126786703
F61.415898061653081
tp102
a(F91.110598707768702
F50.935415480671111
tp103
a(F118.18517870863883
F40.454932899689084
tp104
a(F172.39715310382405
F38.408952043651368
tp105
a(F219.34388672719166
F45.839536003492185
tp106
a(F250.40209361042011
F69.925008711429939
tp107
a(F275.11745119469032
F101.27921560573461
tp108
a(F279.83638516109386
F119.058552257054
tp109
asg11
F0
sg12
(F0
F0
tp110
sS'closed'
p111
I01
sg14
(F1
F1
tp112
ssg16
(dp113
sg18
(dp114
g50
(lp115
(F277.21626451584831
F153.12012064524549
tp116
a(F269.00383635578419
F200.59415794268054
tp117
a(F242.54173167468369
F228.45487064332448
tp118
a(F204.49653640413393
F250.79359625443203
tp119
a(F166.28353826491792
F259.9709273111032
tp120
a(F123.59390378429961
F255.79266893163779
tp121
a(F79.496257310867136
F245.72016999772706
tp122
a(F33.434378219253574
F210.85199402199322
tp123
a(F34.86877459274173
F185.272373740756
tp124
a(F24.757723389837746
F152.70674563997662
tp125
a(F9.9103730667799077
F144.79976016636277
tp126
a(F13.380352898818916
F115.56505806339339
tp127
a(F27.008412657005213
F84.286178516298037
tp128
a(F51.775222735971965
F50.84619629932439
tp129
a(F90.850113440264195
F24.711755807742179
tp130
a(F139.31462765577254
F15.512630422246559
tp131
a(F160.16992342601174
F20.941481075348008
tp132
a(F216.72376608194617
F45.839536003492185
tp133
a(F241.66835812626843
F71.671755808260286
tp134
a(F264.63696861370835
F106.51945689622559
tp135
a(F271.10264967694218
F129.539034838036
tp136
asg72
F0
sg73
(F0
F0
tp137
sg75
I01
sg76
(F1
F1
tp138
ssg22
(dp139
S'points'
p140
(lp141
(F267.44394971410748
F143.51301161267867
tp142
a(F256.57993314324085
F201.46753149109571
tp143
a(F236.23931024243586
F212.7341467718515
tp144
a(F199.02815381335495
F251.66696980284718
tp145
a(F167.04677463388373
F263.46442150476389
tp146
a(F133.16167810992022
F283.74062248092321
tp147
a(F96.090354730755308
F274.54149709542753
tp148
a(F58.795777416407546
F250.06458451932889
tp149
a(F48.281728542311399
F210.85199402199322
tp150
a(F24.73420902821606
F211.63614838906159
tp151
a(F39.581559351273896
F202.02903935649482
tp152
a(F33.467944512367737
F187.18168903343695
tp153
a(F14.781182979192909
F194.00610922490762
tp154
a(F5.5435053247040962
F136.9860217685036
tp155
a(F19.517482099346733
F94.144094358283127
tp156
a(F40.109015883232715
F57.211598515427852
tp157
a(F80.270613623185596
F81.503489675201934
tp158
a(F86.08066630722989
F46.47932855724855
tp159
a(F92.565392771537617
F22.965008710911832
tp160
a(F139.31462765577254
F15.512630422246559
tp161
a(F183.75100923322123
F19.194733978517689
tp162
a(F224.5841280176827
F37.105800519340477
tp163
a(F252.10163905891505
F69.925008711429939
tp164
a(F272.44226195972016
F105.64608334781042
tp165
a(F275.3751141223471
F131.28578193486632
tp166
asg4
F0
sg5
(F-0.87337354841515946
F-0.87337354841505999
tp167
sS'closed'
p168
I01
sg7
(F1
F1
tp169
ssg26
(dp170
g140
(lp171
(F278.96301161267866
F188.05506258185216
tp172
a(F260.27010087163251
F208.45451987841705
tp173
a(F214.59377812539839
F248.54246225687331
tp174
a(F208.86340414620977
F265.64094657748984
tp175
a(F183.75100923322125
F281.80526602148234
tp176
a(F140.18800120418777
F281.9938753840928
tp177
a(F98.710475376000787
F270.17462935335169
tp178
a(F58.762211123293397
F250.1538037006757
tp179
a(F31.375280399081067
F214.96707438687164
tp180
a(F16.897361454101254
F172.79433725352544
tp181
a(F11.657120163610241
F121.21867435915328
tp182
a(F31.375280399081049
F86.032925613128384
tp183
a(F52.648596284387139
F49.972822750909188
tp184
a(F94.343607633924861
F19.471514517251194
tp185
a(F136.69450701052702
F8.5256420349252267
tp186
a(F186.37112987846672
F11.334372042781183
tp187
a(F224.58412801768267
F36.23242697092536
tp188
a(F245.69771677725308
F70.149633545804761
tp189
a(F247.78197296517462
F88.265853228148416
tp190
a(F256.77660667797187
F110.01295108988626
tp191
a(F283.3298793547545
F140.89289096743315
tp192
asg4
F0
sg5
(F0
F0
tp193
sg168
I01
sg7
(F1
F1
tp194
ssg30
(dp195
S'points'
p196
(lp197
(F272.84939677377253
F71.89638064263508
tp198
a(F289.96480151774819
F126.3574063273914
tp199
a(F262.29181419714126
F131.28578193486638
tp200
a(F264.03856129397161
F146.13313225792419
tp201
a(F284.12615290752046
F140.8928909674332
tp202
a(F288.49302064959625
F180.19470064611568
tp203
a(F267.86956457872355
F224.96137644966382
tp204
a(F224.58412801768273
F263.89419948065949
tp205
a(F176.76402084589992
F289.66562795721882
tp206
a(F128.8341450747906
F288.98086377141408
tp207
a(F90.850113440264295
F279.78173838591852
tp208
a(F51.775222735972065
F252.77392434592119
tp209
a(F25.261665560174901
F217.58719503211711
tp210
a(F12.530493712025422
F169.30084305986477
tp211
a(F15.150614357270907
F127.33228919805944
tp212
a(F31.375280399081049
F86.032925613128384
tp213
a(F70.116067252690456
F54.339690492985028
tp214
a(F110.06433150539786
F20.344888065666339
tp215
a(F148.92173668833934
F10.272389131755574
tp216
a(F173.27052665223923
F27.928469462669341
tp217
a(F224.5841280176827
F37.105800519340477
tp218
a(F179.65883618879164
F100.49308290596076
tp219
a(F187.78009635317366
F107.39283044464077
tp220
a(F240.53457548241133
F42.201679996519374
tp221
asS'angle'
p222
F0
sS'pos'
p223
(F0
F0
tp224
sS'closed'
p225
I01
sS'size'
p226
(F1
F1
tp227
ssg37
(dp228
S'points'
p229
(lp230
(F277.18696034799228
F154.00090273367093
tp231
a(F273.3531215971463
F200.60712288769849
tp232
a(F245.12082648493063
F238.94646603432193
tp233
a(F198.29500906165947
F268.27032789774819
tp234
a(F138.2702175042279
F274.5751318662314
tp235
a(F109.2651721911554
F257.29894688578588
tp236
a(F71.839222335312925
F254.85447065813281
tp237
a(F57.532980261921224
F243.03337249238916
tp238
a(F61.155468566559733
F232.56429906218023
tp239
a(F57.885907158092621
F219.52090478105504
tp240
a(F50.639820984150433
F211.55888266015467
tp241
a(F38.371565471339579
F215.05978539382556
tp242
a(F19.092878236922534
F171.298501222939
tp243
a(F33.113741680134936
F168.67282417268575
tp244
a(F29.622672468679514
F154.5765022310481
tp245
a(F16.897361454101254
F155.28982358517081
tp246
a(F29.165616966912086
F105.44979497761358
tp247
a(F53.282879529100427
F73.779766045280127
tp248
a(F58.762211123293312
F50.846196299324362
tp249
a(F96.090354730755223
F26.458502904572491
tp250
a(F167.35635454219732
F12.886953371993343
tp251
a(F190.76144095482738
F27.946990812694992
tp252
a(F224.5841280176827
F37.105800519340477
tp253
a(F245.99713045013138
F66.429662382766764
tp254
a(F278.61094538835096
F106.51945689622558
tp255
a(F285.95000000000005
F136.49638906531627
tp256
asg39
F0
sg40
(F0
F0
tp257
sS'closed'
p258
I01
sg42
(F1
F1
tp259
ssg44
(dp260
g79
(lp261
(F278.08963806426351
F181.941447742946
tp262
a(F261.1434744200476
F218.06162891098387
tp263
a(F225.94763425479553
F256.40282419260978
tp264
a(F196.63617446839737
F264.7675730290747
tp265
a(F169.77703245857859
F265.21116860159418
tp266
a(F161.14896636615177
F257.53941602846817
tp267
a(F115.30457279588897
F233.49294031991474
tp268
a(F98.097587095090148
F264.03856129397161
tp269
a(F59.635584671708564
F244.91356241018471
tp270
a(F42.729136528478243
F220.20731567736266
tp271
a(F29.12459113191359
F194.62867596390461
tp272
a(F22.13760274459224
F136.9393982306263
tp273
a(F29.628533302250716
F106.99389077509238
tp274
a(F58.762211123293319
F57.833184686645723
tp275
a(F96.090354730755223
F26.458502904572491
tp276
a(F139.31462765577254
F15.512630422246559
tp277
a(F183.75100923322123
F19.194733978517689
tp278
a(F221.09063382402206
F40.5992947130012
tp279
a(F254.76896135249598
F67.304888066184446
tp280
a(F278.61094538835096
F106.51945689622558
tp281
a(F282.45650580633935
F138.27277032218768
tp282
asg11
F0
sg12
(F0
F0
tp283
sg111
I01
sg14
(F1
F1
tp284
ss(dp285
g2
(L301L
L301L
tp286
sg9
(L301L
L301L
tp287
sg16
(L301L
L301L
tp288
sg18
(L301L
L301L
tp289
sg22
(L301L
L301L
tp290
sg26
(L301L
L301L
tp291
sg30
(L301L
L301L
tp292
sg37
(L301L
L301L
tp293
sg44
(L301L
L301L
tp294
st.