((dp1
S'115'
p2
(dp3
S'angle'
p4
F0
sS'pos'
p5
(F116.23407795690969
F5.1526496769421897
tp6
sS'size'
p7
(F180.68442374456475
F288.12567936345596
tp8
ssS'111L'
p9
(dp10
sS'120'
p11
(dp12
g4
F0
sg5
(F20
F20
tp13
sg7
(F269.42811810116336
F269.32516958265836
tp14
ssS'109L'
p15
(dp16
sS'117'
p17
(dp18
g4
F0
sg5
(F183.320853553636
F34.84735032305781
tp19
sg7
(F115.19771677725308
F187.6877212957119
tp20
ssS'110'
p21
(dp22
g4
F0
sg5
(F6.0260232253573491
F181.57410645680571
tp23
sg7
(F110.83084903517728
F110.83084903517724
tp24
ssS'113L'
p25
(dp26
g4
F0
sg5
(F20
F20
tp27
sg7
(F264.70696446583531
F253.34556968706346
tp28
ssS'116L'
p29
(dp30
g4
F0
sg5
(F20
F20
tp31
sg7
(F265.41796710466167
F278.51857033088913
tp32
ssS'114L'
p33
(dp34
g4
F0
sg5
(F20
F20
tp35
sg7
(F274.15170258881335
F273.27832904039815
tp36
ssS'119L'
p37
(dp38
g4
F0
sg5
(F12.139638064263494
F20
tp39
sg7
(F275.02507613722855
F274.15170258881335
tp40
ss(dp41
g2
(dp42
S'points'
p43
(lp44
(F264.76084522049695
F178.44795354928533
tp45
a(F254.77314626140998
F212.82138762049286
tp46
a(F236.19992721823843
F210.98739967502115
tp47
a(F206.0436175856176
F249.04684915760168
tp48
a(F177.57083908919952
F265.21116860159418
tp49
a(F136.66598330833472
F279.37375473884725
tp50
a(F96.090354730755308
F274.54149709542753
tp51
a(F58.762211123293397
F250.1538037006757
tp52
a(F33.141043297372988
F194.87948277332282
tp53
a(F12.482954208371456
F173.66771080194061
tp54
a(F7.1856655134956746
F122.96542145598363
tp55
a(F37.555450543102765
F67.692081096409879
tp56
a(F79.951365902796354
F77.920776300194518
tp57
a(F96.090354730755223
F26.458502904572491
tp58
a(F139.31462765577254
F15.512630422246559
tp59
a(F183.75100923322123
F19.194733978517689
tp60
a(F224.5841280176827
F37.105800519340477
tp61
a(F251.20891185371977
F70.798382259845113
tp62
a(F275.07941959176708
F118.74668657403791
tp63
a(F270.94101536451865
F141.76626451584832
tp64
asg4
F0
sg5
(F0
F0
tp65
sS'closed'
p66
I01
sg7
(F1
F1
tp67
ssg9
(dp68
sg11
(dp69
g43
(lp70
(F278.94850896558137
F151.3748251564304
tp71
a(F278.61094538835096
F194.48054310377438
tp72
a(F251.26277734262521
F230.19581130809399
tp73
a(F225.45931439698501
F255.14594791635574
tp74
a(F184.62619561252356
F269.55771383145708
tp75
a(F142.81537317298191
F279.36359348274084
tp76
a(F114.46926869610419
F257.91981912325031
tp77
a(F71.890006812828304
F255.40275463925798
tp78
a(F63.75717643326719
F235.9628781412008
tp79
a(F44.028139212473405
F209.53699382360145
tp80
a(F23.669233056335973
F185.24286471504675
tp81
a(F17.772547833403561
F143.95251556222146
tp82
a(F33.125653157685704
F96.530827490292978
tp83
a(F47.384788192363047
F86.714027712969994
tp84
a(F55.175942711219776
F64.516993127654246
tp85
a(F96.090354730755223
F26.458502904572491
tp86
a(F139.31462765577254
F15.512630422246559
tp87
a(F183.75100923322123
F19.194733978517689
tp88
a(F221.9585688797757
F40.605101145062065
tp89
a(F253.01315010122977
F70.804188691906006
tp90
a(F278.61094538835096
F106.51945689622558
tp91
a(F282.44925448279071
F138.25244780997468
tp92
asg4
F0
sg5
(F0
F0
tp93
sg66
I01
sg7
(F1
F1
tp94
ssg15
(dp95
sg17
(dp96
g43
(lp97
(F282.45650580633935
F155.74024129049101
tp98
a(F274.24407764627517
F189.24030181328337
tp99
a(F260.00920264298708
F207.49390548136049
tp100
a(F216.72376608194625
F241.18648722186521
tp101
a(F204.71197439518519
F266.95791569842447
tp102
a(F141.93474830101809
F281.1205018356776
tp103
a(F96.090354730755308
F274.54149709542753
tp104
a(F58.762211123293397
F250.1538037006757
tp105
a(F31.375280399081067
F214.96707438687164
tp106
a(F16.897361454101254
F172.79433725352544
tp107
a(F16.897361454101237
F128.20566274647462
tp108
a(F31.375280399081049
F86.032925613128384
tp109
a(F58.762211123293312
F50.846196299324362
tp110
a(F96.090354730755223
F26.458502904572491
tp111
a(F139.31462765577254
F15.512630422246559
tp112
a(F183.75100923322123
F19.194733978517689
tp113
a(F224.5841280176827
F37.105800519340477
tp114
a(F246.03522586834427
F69.925008711429939
tp115
a(F252.409738935896
F108.26620399305594
tp116
a(F279.83638516109386
F131.28578193486632
tp117
asg4
F0
sg5
(F0
F0
tp118
sg66
I01
sg7
(F1
F1
tp119
ssg21
(dp120
g43
(lp121
(F285.94999999999999
F150.5
tp122
a(F278.61094538835096
F194.48054310377438
tp123
a(F257.38908199774153
F233.6951119338155
tp124
a(F224.58412801768273
F263.89419948065949
tp125
a(F183.75100923322125
F281.80526602148234
tp126
a(F139.3146276557726
F285.48736957775344
tp127
a(F96.090354730755308
F274.54149709542753
tp128
a(F58.762211123293397
F250.1538037006757
tp129
a(F34.86877459274173
F207.98008599955028
tp130
a(F28.251217583498413
F178.03457854401643
tp131
a(F16.897361454101237
F128.20566274647462
tp132
a(F31.375280399081049
F86.032925613128384
tp133
a(F58.762211123293312
F50.846196299324362
tp134
a(F96.090354730755223
F26.458502904572491
tp135
a(F139.31462765577254
F15.512630422246559
tp136
a(F183.75100923322123
F19.194733978517689
tp137
a(F224.5841280176827
F37.105800519340477
tp138
a(F257.38908199774147
F67.304888066184461
tp139
a(F278.61094538835096
F106.51945689622558
tp140
a(F285.94999999999999
F150.49999999999997
tp141
asg4
F0
sg5
(F0
F0
tp142
sg66
I01
sg7
(F1
F1
tp143
ssg25
(dp144
g43
(lp145
(F285.94999999999999
F150.5
tp146
a(F278.61094538835096
F194.48054310377438
tp147
a(F257.38908199774153
F233.6951119338155
tp148
a(F224.58412801768273
F263.89419948065949
tp149
a(F164.52403345376277
F266.94805746462805
tp150
a(F152.42392932358521
F259.26876624212832
tp151
a(F95.95430034082969
F229.95230370390038
tp152
a(F63.1319783458976
F241.41426925546727
tp153
a(F31.375280399081063
F212.34521405330912
tp154
a(F22.141082121226297
F172.79433725352541
tp155
a(F21.26712867670544
F128.20566274647459
tp156
a(F35.745047621685252
F86.906879057649178
tp157
a(F66.627792123980868
F52.594103188366034
tp158
a(F95.216401286234372
F31.702223571697516
tp159
a(F139.31462765577254
F15.512630422246559
tp160
a(F183.75100923322123
F19.194733978517689
tp161
a(F224.5841280176827
F37.105800519340477
tp162
a(F257.38908199774147
F67.304888066184461
tp163
a(F278.61094538835096
F106.51945689622558
tp164
a(F285.94999999999999
F150.49999999999997
tp165
asg4
F0
sg5
(F0
F0
tp166
sg66
I01
sg7
(F1
F1
tp167
ssg29
(dp168
g43
(lp169
(F285.94999999999999
F150.5
tp170
a(F276.86419829152067
F207.58114633000184
tp171
a(F257.38908199774153
F233.6951119338155
tp172
a(F224.58412801768273
F263.89419948065949
tp173
a(F183.75100923322125
F281.80526602148234
tp174
a(F142.80812184943326
F292.47435796507477
tp175
a(F89.103366343433962
F278.03499128908817
tp176
a(F53.521969832802398
F250.1538037006757
tp177
a(F31.375280399081067
F214.96707438687164
tp178
a(F23.01097629300742
F172.79433725352544
tp179
a(F29.997964680328725
F128.20566274647462
tp180
a(F40.982389431647874
F97.386781742525557
tp181
a(F61.382331768538805
F58.706558235060868
tp182
a(F89.976739891849036
F42.179226776045482
tp183
a(F143.68149539784835
F33.853474938965064
tp184
a(F186.37112987846672
F34.042084301575528
tp185
a(F216.72376608194617
F50.206403745567968
tp186
a(F243.41510522309878
F79.532117743996764
tp187
a(F262.01684796846286
F102.15258915414975
tp188
a(F273.72277032218767
F139.14614387060283
tp189
asg4
F0
sg5
(F0
F0
tp190
sg66
I01
sg7
(F1
F1
tp191
ssg33
(dp192
g43
(lp193
(F278.96301161267866
F152.24674709683035
tp194
a(F265.51034216212349
F200.59415794268054
tp195
a(F260.88257619140222
F235.44185903064579
tp196
a(F224.58412801768273
F263.89419948065949
tp197
a(F183.75100923322125
F281.80526602148234
tp198
a(F139.3146276557726
F285.48736957775344
tp199
a(F96.090354730755294
F265.80776161127585
tp200
a(F57.888837574878224
F233.55970628078754
tp201
a(F33.122027495911396
F192.2593621280773
tp202
a(F42.225194358141067
F148.33987789790081
tp203
a(F29.124591131913565
F128.20566274647462
tp204
a(F40.982389431647874
F86.032925613128384
tp205
a(F67.495946607444964
F54.339690492985028
tp206
a(F104.82409021490685
F30.82537064664831
tp207
a(F126.04554064437531
F37.834812254443648
tp208
a(F139.31462765577254
F15.512630422246559
tp209
a(F193.35811826578805
F21.81485462376321
tp210
a(F214.97701898511585
F46.71290955190733
tp211
a(F242.54173167468363
F77.785370647166445
tp212
a(F262.890221516878
F111.75969818671661
tp213
a(F280.709758709509
F131.28578193486632
tp214
asg4
F0
sg5
(F0
F0
tp215
sg66
I01
sg7
(F1
F1
tp216
ssg37
(dp217
g43
(lp218
(F285.94999999999999
F150.5
tp219
a(F278.61094538835096
F194.48054310377438
tp220
a(F257.38908199774153
F233.6951119338155
tp221
a(F224.58412801768273
F263.89419948065949
tp222
a(F183.75100923322125
F281.80526602148234
tp223
a(F140.18800120418777
F289.85423731982928
tp224
a(F95.216981182340135
F281.52848548274886
tp225
a(F54.395343381217558
F257.140792087997
tp226
a(F27.008412657005234
F221.0806892257778
tp227
a(F11.657120163610255
F173.66771080194061
tp228
a(F16.897361454101237
F128.20566274647462
tp229
a(F31.375280399081049
F86.032925613128384
tp230
a(F69.242693704275297
F60.453305331891215
tp231
a(F102.20396956966135
F29.078623549818019
tp232
a(F139.31462765577254
F15.512630422246559
tp233
a(F167.15691181333307
F57.623170108785018
tp234
a(F199.25629511364284
F36.23242697092536
tp235
a(F242.54173167468363
F55.951031936787274
tp236
a(F278.61094538835096
F106.51945689622558
tp237
a(F285.94999999999999
F150.49999999999997
tp238
asg4
F0
sg5
(F0
F0
tp239
sg66
I01
sg7
(F1
F1
tp240
ss(dp241
g2
(L301L
L301L
tp242
sg9
(L301L
L301L
tp243
sg11
(L301L
L301L
tp244
sg15
(L301L
L301L
tp245
sg17
(L301L
L301L
tp246
sg21
(L301L
L301L
tp247
sg25
(L301L
L301L
tp248
sg29
(L301L
L301L
tp249
sg33
(L301L
L301L
tp250
sg37
(L301L
L301L
tp251
st.