((dp1
S'115'
p2
(dp3
S'angle'
p4
F0
sS'pos'
p5
(F20
F20
tp6
sS'size'
p7
(F254.0641109752645
F258.43097871734034
tp8
ssS'111L'
p9
(dp10
g4
F0
sg5
(F29.607109032566882
F26.113614838906187
tp11
sg7
(F261.92447291100098
F261.92447291100098
tp12
ssS'120'
p13
(dp14
g4
F0
sg5
(F20
F20
tp15
sg7
(F270.62293404742161
F267.68886840721825
tp16
ssS'109L'
p17
(dp18
g4
F0
sg5
(F13.013011612678675
F21.746747096830291
tp19
sg7
(F253.19073742684941
F248.82386968477351
tp20
ssS'119L'
p21
(dp22
g4
F0
sg5
(F20
F20
tp23
sg7
(F263.67122000783138
F264.54459355624647
tp24
ssS'113L'
p25
(dp26
g4
F0
sg5
(F20
F20
tp27
sg7
(F265.74386871605384
F261.21115068775231
tp28
ssS'116L'
p29
(dp30
g4
F0
sg5
(F20
F20
tp31
sg7
(F268.91146129832237
F275.02507613722844
tp32
ssS'117L'
p33
(dp34
S'angle'
p35
F0
sS'pos'
p36
(F146.63916452019907
F1.659155483281495
tp37
sS'size'
p38
(F137.90542903604739
F289.87242646028631
tp39
ssS'114L'
p40
(dp41
g4
F0
sg5
(F20
F20
tp42
sg7
(F263.67122000783138
F268.91146129832231
tp43
ssS'110'
p44
(dp45
g4
F0
sg5
(F13.995184397973972
F148.12003359774502
tp46
sg7
(F128.04625041881792
F150.25984575700943
tp47
ss(dp48
g2
(dp49
S'points'
p50
(lp51
(F269.35590258011183
F156.61361483890616
tp52
a(F260.27010087163251
F190.98704891011371
tp53
a(F239.9216110294382
F211.86077322343633
tp54
a(F204.49653640413393
F242.93323431869553
tp55
a(F173.27052665223925
F265.21116860159418
tp56
a(F125.34065088112993
F280.24712828726246
tp57
a(F96.090354730755308
F274.54149709542753
tp58
a(F58.762211123293397
F250.1538037006757
tp59
a(F31.375280399081067
F214.96707438687164
tp60
a(F31.721197415537407
F192.421930323928
tp61
a(F12.530493712025422
F178.03457854401643
tp62
a(F9.9103730667799077
F129.07903629488979
tp63
a(F29.628533302250712
F76.425816580561559
tp64
a(F79.723176285257281
F76.174029203364199
tp65
a(F93.470234085509702
F23.838382259326977
tp66
a(F139.31462765577254
F15.512630422246559
tp67
a(F183.75100923322123
F19.194733978517689
tp68
a(F224.5841280176827
F37.105800519340477
tp69
a(F253.0222142556656
F74.291876453505779
tp70
a(F267.25708925895384
F102.15258915414975
tp71
a(F272.84939677377253
F132.15915548328149
tp72
asg4
F0
sg5
(F0
F0
tp73
sS'closed'
p74
I01
sg7
(F1
F1
tp75
ssg9
(dp76
g50
(lp77
(F291.19024129049097
F156.61361483890616
tp78
a(F274.24407764627517
F196.2272902006047
tp79
a(F266.99619103030841
F231.07499128856998
tp80
a(F230.69774285658892
F253.41371689967752
tp81
a(F198.59835955627906
F282.67863956989748
tp82
a(F139.3146276557726
F285.48736957775344
tp83
a(F100.45722247283112
F271.92137645018204
tp84
a(F78.849802736842207
F245.78693595859986
tp85
a(F47.096004270554047
F217.58719503211711
tp86
a(F36.111579519234908
F179.78132564084677
tp87
a(F25.631096938252899
F153.53349565051442
tp88
a(F47.096004270554047
F103.50039658143172
tp89
a(F70.116067252690456
F73.553908558118678
tp90
a(F105.69746376332202
F47.419468066536467
tp91
a(F133.20101281686635
F40.840463326286397
tp92
a(F185.49775633005154
F35.788831398405819
tp93
a(F218.47051317877649
F42.34604180983149
tp94
a(F257.38908199774147
F67.304888066184461
tp95
a(F275.11745119469032
F91.672106573167781
tp96
a(F286.82337354841519
F123.42541999912984
tp97
asg4
F0
sg5
(F0
F0
tp98
sg74
I01
sg7
(F1
F1
tp99
ssg13
(dp100
g50
(lp101
(F278.06326431319297
F156.62657978392411
tp102
a(F278.61094538835096
F194.48054310377438
tp103
a(F251.25495424133604
F238.9464660343219
tp104
a(F221.07891215687962
F258.64284538015312
tp105
a(F181.12209733761895
F273.05300918730501
tp106
a(F138.43832369057182
F279.36078979382933
tp107
a(F103.10078645236149
F262.28833752757924
tp108
a(F58.762211123293397
F250.1538037006757
tp109
a(F31.375280399081067
F214.96707438687164
tp110
a(F16.897361454101254
F172.79433725352544
tp111
a(F16.897361454101237
F128.20566274647462
tp112
a(F39.262016085888021
F86.908151296546094
tp113
a(F58.762211123293312
F50.846196299324362
tp114
a(F96.090354730755223
F26.458502904572491
tp115
a(F139.31462765577254
F15.512630422246559
tp116
a(F181.99840130281967
F21.820411028770877
tp117
a(F232.47086370448969
F44.98283167010004
tp118
a(F259.14168992814302
F74.306693533526328
tp119
a(F281.23985728395326
F102.14332847913693
tp120
a(F285.94999999999999
F130.36980928139212
tp121
asg4
F0
sg5
(F2.6289118956023003
F0.87522568341773876
tp122
sg74
I01
sg7
(F1
F1
tp123
ssg17
(dp124
g50
(lp125
(F278.96301161267866
F153.99349419366067
tp126
a(F271.62395700102968
F196.2272902006047
tp127
a(F240.7949845778534
F229.32824419173966
tp128
a(F213.23027188828561
F242.93323431869553
tp129
a(F172.39715310382408
F258.22418021427285
tp130
a(F136.6945070105271
F262.7796573189591
tp131
a(F103.95071666649179
F253.58053193346353
tp132
a(F69.242693704275382
F237.0532004744482
tp133
a(F33.99540104432657
F211.47358019321098
tp134
a(F28.251217583498413
F167.55409596303446
tp135
a(F10.783746615195074
F141.30626597270211
tp136
a(F23.514918463344554
F88.653046258373877
tp137
a(F52.648596284387139
F50.84619629932439
tp138
a(F91.723486988679369
F26.45850290457247
tp139
a(F130.58089217162086
F19.879498164322399
tp140
a(F184.62438278163637
F29.675216559499688
tp141
a(F214.97701898511585
F44.966162455076983
tp142
a(F239.04823748102294
F67.304888066184446
tp143
a(F262.01684796846286
F99.532468508904259
tp144
a(F270.22927612852703
F124.29879354754499
tp145
asg4
F0
sg5
(F0
F0
tp146
sg74
I01
sg7
(F1
F1
tp147
ssg21
(dp148
g50
(lp149
(F288.57012064524548
F148.75325290316968
tp150
a(F282.97781313042685
F196.2272902006047
tp151
a(F257.38908199774153
F233.6951119338155
tp152
a(F224.58412801768273
F263.89419948065949
tp153
a(F183.75100923322125
F281.80526602148234
tp154
a(F139.3146276557726
F285.48736957775344
tp155
a(F91.723486988679468
F278.03499128908817
tp156
a(F50.028475639141732
F251.02717724909087
tp157
a(F27.008412657005234
F214.96707438687162
tp158
a(F16.897361454101254
F172.79433725352544
tp159
a(F16.897361454101237
F128.20566274647462
tp160
a(F21.670746922785352
F100.88027593618619
tp161
a(F65.820053651508374
F61.32667888030636
tp162
a(F96.090354730755223
F26.458502904572491
tp163
a(F139.31462765577254
F15.512630422246559
tp164
a(F164.34194228062984
F59.369917205615309
tp165
a(F203.41060043303756
F37.97917406775565
tp166
a(F252.09570010158018
F53.330911291541781
tp167
a(F282.13986665245847
F96.912347863658766
tp168
a(F282.95766912285779
F123.42541999912987
tp169
a(F258.60086020316663
F136.52602322535733
tp170
asg4
F0
sg5
(F0
F0
tp171
sg74
I01
sg7
(F1
F1
tp172
ssg25
(dp173
g50
(lp174
(F285.94999999999999
F150.5
tp175
a(F278.61094538835096
F194.48054310377438
tp176
a(F268.75801542588636
F230.19929815573215
tp177
a(F236.82759478645411
F266.51605981422199
tp178
a(F185.50007591447431
F272.19177813175304
tp179
a(F156.80529446830312
F259.26876624212821
tp180
a(F97.839421412008349
F225.60010420226041
tp181
a(F58.762211123293397
F250.1538037006757
tp182
a(F34.873413761587173
F210.59730716426742
tp183
a(F22.144561497860408
F166.67666314187954
tp184
a(F23.893628179113449
F126.45775585743291
tp185
a(F36.6224804428402
F92.150599724774281
tp186
a(F66.633011188932045
F55.215963521928586
tp187
a(F99.588488093261333
F30.828270127176665
tp188
a(F139.31462765577254
F19.882397644850812
tp189
a(F183.75100923322123
F19.194733978517689
tp190
a(F222.83506133642962
F41.475567741944701
tp191
a(F257.38908199774147
F67.304888066184461
tp192
a(F278.61094538835096
F106.51945689622558
tp193
a(F285.94999999999993
F132.14697766506228
tp194
asg4
F0
sg5
(F0
F0
tp195
sg74
I01
sg7
(F1
F1
tp196
ssg29
(dp197
g50
(lp198
(F285.94999999999999
F150.5
tp199
a(F278.61094538835096
F194.48054310377438
tp200
a(F257.38908199774153
F233.6951119338155
tp201
a(F224.58412801768273
F263.89419948065949
tp202
a(F186.37112987846675
F290.53900150563402
tp203
a(F136.6945070105271
F291.60098441665963
tp204
a(F88.229992795018802
F278.90836483750337
tp205
a(F54.395343381217558
F254.52067144275156
tp206
a(F31.375280399081067
F214.96707438687164
tp207
a(F16.897361454101254
F172.79433725352544
tp208
a(F25.631096938252895
F125.58554210122915
tp209
a(F50.589498464214714
F87.779672709958703
tp210
a(F64.875825962199471
F57.833184686645723
tp211
a(F100.45722247283103
F44.799347421290975
tp212
a(F138.44125410735737
F28.613233648474079
tp213
a(F181.13088858797573
F43.649193334142353
tp214
a(F221.96400737243721
F53.699897939228663
tp215
a(F243.41510522309881
F82.152238389242314
tp216
a(F266.38371571053858
F110.88632463830143
tp217
a(F273.72277032218767
F135.65264967694216
tp218
asg4
F0
sg5
(F0
F0
tp219
sg74
I01
sg7
(F1
F1
tp220
ssg33
(dp221
S'points'
p222
(lp223
(F280.16403066457872
F173.1617132303997
tp224
a(F262.21736560465752
F212.80277933260817
tp225
a(F253.89558780408086
F209.2406525781908
tp226
a(F211.48352479145527
F249.04684915760168
tp227
a(F183.75100923322125
F281.80526602148234
tp228
a(F139.3146276557726
F285.48736957775344
tp229
a(F96.090354730755308
F274.54149709542753
tp230
a(F58.762211123293397
F250.1538037006757
tp231
a(F31.375280399081067
F214.96707438687164
tp232
a(F16.897361454101254
F172.79433725352544
tp233
a(F16.897361454101237
F128.20566274647462
tp234
a(F31.375280399081049
F86.032925613128384
tp235
a(F58.762211123293312
F50.846196299324362
tp236
a(F96.090354730755223
F26.458502904572491
tp237
a(F146.30161604309387
F4.1587742928494436
tp238
a(F202.96522729835488
F15.701239784857023
tp239
a(F224.5841280176827
F37.105800519340477
tp240
a(F245.16185231992918
F85.64573258290298
tp241
a(F255.94923215795126
F114.23408267678715
tp242
a(F280.16403066457872
F131.2134355485959
tp243
asg35
F0
sg36
(F0
F0
tp244
sS'closed'
p245
I01
sg38
(F1
F1
tp246
ssg40
(dp247
g50
(lp248
(F281.58313225792415
F153.12012064524549
tp249
a(F266.3837157105387
F190.98704891011371
tp250
a(F257.38908199774153
F233.6951119338155
tp251
a(F224.58412801768273
F263.89419948065949
tp252
a(F183.75100923322125
F281.80526602148234
tp253
a(F141.06137475260292
F284.6139960293383
tp254
a(F85.609872149773295
F257.94739967553937
tp255
a(F42.168113703405226
F228.31946499029652
tp256
a(F28.755159753835567
F177.41201180501949
tp257
a(F43.9719414549714
F148.33987789790081
tp258
a(F34.364832422404547
F127.33228919805944
tp259
a(F36.615521689572049
F88.653046258373877
tp260
a(F61.382331768538791
F68.313667267627693
tp261
a(F98.710475376000701
F41.305853227630337
tp262
a(F139.31462765577254
F15.512630422246559
tp263
a(F191.6113711689577
F18.321360430102516
tp264
a(F213.2302718882855
F44.092788906661838
tp265
a(F248.65534651358976
F81.278864840827111
tp266
a(F262.01684796846286
F105.64608334781042
tp267
a(F277.21626451584831
F129.539034838036
tp268
asg4
F0
sg5
(F0
F0
tp269
sg74
I01
sg7
(F1
F1
tp270
ssg44
(dp271
g50
(lp272
(F280.709758709509
F167.09409741988816
tp273
a(F273.37070409786003
F193.60716955535921
tp274
a(F247.78197296517473
F219.72113515917283
tp275
a(F201.87641575888844
F260.40070528699886
tp276
a(F183.75100923322125
F281.80526602148234
tp277
a(F139.3146276557726
F285.48736957775344
tp278
a(F96.090354730755294
F268.42788225652134
tp279
a(F69.242693704275382
F242.29344176493919
tp280
a(F39.235642334817555
F207.98008599955028
tp281
a(F30.871338228743912
F168.4274695114496
tp282
a(F31.744711777159051
F128.20566274647462
tp283
a(F46.222630722138874
F91.273166903619369
tp284
a(F67.495946607444964
F57.833184686645723
tp285
a(F103.07734311807653
F44.799347421290975
tp286
a(F128.83414507479054
F28.613233648474079
tp287
a(F183.75100923322123
F33.168710753160326
tp288
a(F214.10364543670067
F48.459656648737678
tp289
a(F251.27546715883526
F73.418502905090605
tp290
a(F278.61094538835096
F106.51945689622558
tp291
a(F280.709758709509
F131.28578193486632
tp292
asg4
F0
sg5
(F0
F0
tp293
sg74
I01
sg7
(F1
F1
tp294
ss(dp295
g2
(L301L
L301L
tp296
sg9
(L301L
L301L
tp297
sg13
(L301L
L301L
tp298
sg17
(L301L
L301L
tp299
sg21
(L301L
L301L
tp300
sg25
(L301L
L301L
tp301
sg29
(L301L
L301L
tp302
sg33
(L301L
L301L
tp303
sg40
(L301L
L301L
tp304
sg44
(L301L
L301L
tp305
st.