((dp1
S'115'
p2
(dp3
S'angle'
p4
F0
sS'pos'
p5
(F20
F20
tp6
sS'size'
p7
(F20
F20
tp8
ssS'109'
p9
(dp10
g4
F0
sg5
(F20
F20
tp11
sg7
(F20
F20
tp12
ssS'120'
p13
(dp14
g4
F0
sg5
(F20
F20
tp15
sg7
(F20
F20
tp16
ssS'114'
p17
(dp18
g4
F0
sg5
(F20
F20
tp19
sg7
(F20
F20
tp20
ssS'116'
p21
(dp22
g4
F0
sg5
(F20
F20
tp23
sg7
(F20
F20
tp24
ssS'111'
p25
(dp26
g4
F0
sg5
(F20
F20
tp27
sg7
(F20
F20
tp28
ssS'110'
p29
(dp30
g4
F0
sg5
(F20
F20
tp31
sg7
(F20
F20
tp32
ssS'119'
p33
(dp34
g4
F0
sg5
(F20
F20
tp35
sg7
(F20
F20
tp36
ss(dp37
g2
(dp38
S'points'
p39
(lp40
(F285.94999999999999
F150.5
tp41
a(F278.61094538835096
F194.48054310377438
tp42
a(F257.38908199774153
F233.6951119338155
tp43
a(F224.58412801768273
F263.89419948065949
tp44
a(F183.75100923322125
F281.80526602148234
tp45
a(F139.3146276557726
F285.48736957775344
tp46
a(F96.090354730755308
F274.54149709542753
tp47
a(F58.762211123293397
F250.1538037006757
tp48
a(F31.375280399081067
F214.96707438687164
tp49
a(F16.897361454101254
F172.79433725352544
tp50
a(F16.897361454101237
F128.20566274647462
tp51
a(F31.375280399081049
F86.032925613128384
tp52
a(F58.762211123293312
F50.846196299324362
tp53
a(F96.090354730755223
F26.458502904572491
tp54
a(F139.31462765577254
F15.512630422246559
tp55
a(F183.75100923322123
F19.194733978517689
tp56
a(F224.5841280176827
F37.105800519340477
tp57
a(F257.38908199774147
F67.304888066184461
tp58
a(F278.61094538835096
F106.51945689622558
tp59
a(F285.94999999999999
F150.49999999999997
tp60
asg4
F0
sg5
(F0
F0
tp61
sS'closed'
p62
I01
sg7
(F1
F1
tp63
ssg9
(dp64
g39
(lp65
(F285.94999999999999
F150.5
tp66
a(F278.61094538835096
F194.48054310377438
tp67
a(F257.38908199774153
F233.6951119338155
tp68
a(F224.58412801768273
F263.89419948065949
tp69
a(F183.75100923322125
F281.80526602148234
tp70
a(F139.3146276557726
F285.48736957775344
tp71
a(F96.090354730755308
F274.54149709542753
tp72
a(F58.762211123293397
F250.1538037006757
tp73
a(F31.375280399081067
F214.96707438687164
tp74
a(F16.897361454101254
F172.79433725352544
tp75
a(F16.897361454101237
F128.20566274647462
tp76
a(F31.375280399081049
F86.032925613128384
tp77
a(F58.762211123293312
F50.846196299324362
tp78
a(F96.090354730755223
F26.458502904572491
tp79
a(F139.31462765577254
F15.512630422246559
tp80
a(F183.75100923322123
F19.194733978517689
tp81
a(F224.5841280176827
F37.105800519340477
tp82
a(F257.38908199774147
F67.304888066184461
tp83
a(F278.61094538835096
F106.51945689622558
tp84
a(F174.1581858028587
F148.75325290316965
tp85
asg4
F0
sg5
(F0
F0
tp86
sg62
I01
sg7
(F1
F1
tp87
ssg13
(dp88
g39
(lp89
(F285.94999999999999
F150.5
tp90
a(F278.61094538835096
F194.48054310377438
tp91
a(F257.38908199774153
F233.6951119338155
tp92
a(F224.58412801768273
F263.89419948065949
tp93
a(F183.75100923322125
F281.80526602148234
tp94
a(F139.3146276557726
F285.48736957775344
tp95
a(F96.090354730755308
F274.54149709542753
tp96
a(F58.762211123293397
F250.1538037006757
tp97
a(F31.375280399081067
F214.96707438687164
tp98
a(F16.897361454101254
F172.79433725352544
tp99
a(F16.897361454101237
F128.20566274647462
tp100
a(F31.375280399081049
F86.032925613128384
tp101
a(F58.762211123293312
F50.846196299324362
tp102
a(F96.090354730755223
F26.458502904572491
tp103
a(F139.31462765577254
F15.512630422246559
tp104
a(F183.75100923322123
F19.194733978517689
tp105
a(F224.5841280176827
F37.105800519340477
tp106
a(F257.38908199774147
F67.304888066184461
tp107
a(F278.61094538835096
F106.51945689622558
tp108
a(F285.94999999999999
F150.49999999999997
tp109
asg4
F0
sg5
(F0
F0
tp110
sg62
I01
sg7
(F1
F1
tp111
ssg17
(dp112
g39
(lp113
(F285.94999999999999
F150.5
tp114
a(F278.61094538835096
F194.48054310377438
tp115
a(F257.38908199774153
F233.6951119338155
tp116
a(F224.58412801768273
F263.89419948065949
tp117
a(F183.75100923322125
F281.80526602148234
tp118
a(F139.3146276557726
F285.48736957775344
tp119
a(F96.090354730755308
F274.54149709542753
tp120
a(F58.762211123293397
F250.1538037006757
tp121
a(F31.375280399081067
F214.96707438687164
tp122
a(F16.897361454101254
F172.79433725352544
tp123
a(F16.897361454101237
F128.20566274647462
tp124
a(F31.375280399081049
F86.032925613128384
tp125
a(F58.762211123293312
F50.846196299324362
tp126
a(F96.090354730755223
F26.458502904572491
tp127
a(F139.31462765577254
F15.512630422246559
tp128
a(F183.75100923322123
F19.194733978517689
tp129
a(F224.5841280176827
F37.105800519340477
tp130
a(F257.38908199774147
F67.304888066184461
tp131
a(F278.61094538835096
F106.51945689622558
tp132
a(F285.94999999999999
F150.49999999999997
tp133
asg4
F0
sg5
(F0
F0
tp134
sg62
I01
sg7
(F1
F1
tp135
ssg21
(dp136
g39
(lp137
(F285.94999999999999
F150.5
tp138
a(F278.61094538835096
F194.48054310377438
tp139
a(F257.38908199774153
F233.6951119338155
tp140
a(F224.58412801768273
F263.89419948065949
tp141
a(F183.75100923322125
F281.80526602148234
tp142
a(F139.3146276557726
F285.48736957775344
tp143
a(F96.090354730755308
F274.54149709542753
tp144
a(F58.762211123293397
F250.1538037006757
tp145
a(F31.375280399081067
F214.96707438687164
tp146
a(F16.897361454101254
F172.79433725352544
tp147
a(F16.897361454101237
F128.20566274647462
tp148
a(F31.375280399081049
F86.032925613128384
tp149
a(F58.762211123293312
F50.846196299324362
tp150
a(F96.090354730755223
F26.458502904572491
tp151
a(F139.31462765577254
F15.512630422246559
tp152
a(F183.75100923322123
F19.194733978517689
tp153
a(F224.5841280176827
F37.105800519340477
tp154
a(F257.38908199774147
F67.304888066184461
tp155
a(F278.61094538835096
F106.51945689622558
tp156
a(F285.94999999999999
F150.49999999999997
tp157
asg4
F0
sg5
(F0
F0
tp158
sg62
I01
sg7
(F1
F1
tp159
ssg25
(dp160
g39
(lp161
(F285.94999999999999
F150.5
tp162
a(F278.61094538835096
F194.48054310377438
tp163
a(F257.38908199774153
F233.6951119338155
tp164
a(F224.58412801768273
F263.89419948065949
tp165
a(F183.75100923322125
F281.80526602148234
tp166
a(F139.3146276557726
F285.48736957775344
tp167
a(F96.090354730755308
F274.54149709542753
tp168
a(F58.762211123293397
F250.1538037006757
tp169
a(F31.375280399081067
F214.96707438687164
tp170
a(F16.897361454101254
F172.79433725352544
tp171
a(F16.897361454101237
F128.20566274647462
tp172
a(F31.375280399081049
F86.032925613128384
tp173
a(F58.762211123293312
F50.846196299324362
tp174
a(F96.090354730755223
F26.458502904572491
tp175
a(F139.31462765577254
F15.512630422246559
tp176
a(F183.75100923322123
F19.194733978517689
tp177
a(F224.5841280176827
F37.105800519340477
tp178
a(F257.38908199774147
F67.304888066184461
tp179
a(F278.61094538835096
F106.51945689622558
tp180
a(F285.94999999999999
F150.49999999999997
tp181
asg4
F0
sg5
(F0
F0
tp182
sg62
I01
sg7
(F1
F1
tp183
ssg29
(dp184
g39
(lp185
(F285.94999999999999
F150.5
tp186
a(F278.61094538835096
F194.48054310377438
tp187
a(F257.38908199774153
F233.6951119338155
tp188
a(F224.58412801768273
F263.89419948065949
tp189
a(F183.75100923322125
F281.80526602148234
tp190
a(F139.3146276557726
F285.48736957775344
tp191
a(F96.090354730755308
F274.54149709542753
tp192
a(F58.762211123293397
F250.1538037006757
tp193
a(F31.375280399081067
F214.96707438687164
tp194
a(F16.897361454101254
F172.79433725352544
tp195
a(F16.897361454101237
F128.20566274647462
tp196
a(F31.375280399081049
F86.032925613128384
tp197
a(F58.762211123293312
F50.846196299324362
tp198
a(F96.090354730755223
F26.458502904572491
tp199
a(F139.31462765577254
F15.512630422246559
tp200
a(F183.75100923322123
F19.194733978517689
tp201
a(F224.5841280176827
F37.105800519340477
tp202
a(F257.38908199774147
F67.304888066184461
tp203
a(F278.61094538835096
F106.51945689622558
tp204
a(F285.94999999999999
F150.49999999999997
tp205
asg4
F0
sg5
(F0
F0
tp206
sg62
I01
sg7
(F1
F1
tp207
ssg33
(dp208
g39
(lp209
(F285.94999999999999
F150.5
tp210
a(F278.61094538835096
F194.48054310377438
tp211
a(F257.38908199774153
F233.6951119338155
tp212
a(F224.58412801768273
F263.89419948065949
tp213
a(F183.75100923322125
F281.80526602148234
tp214
a(F139.3146276557726
F285.48736957775344
tp215
a(F96.090354730755308
F274.54149709542753
tp216
a(F58.762211123293397
F250.1538037006757
tp217
a(F31.375280399081067
F214.96707438687164
tp218
a(F16.897361454101254
F172.79433725352544
tp219
a(F16.897361454101237
F128.20566274647462
tp220
a(F31.375280399081049
F86.032925613128384
tp221
a(F58.762211123293312
F50.846196299324362
tp222
a(F96.090354730755223
F26.458502904572491
tp223
a(F139.31462765577254
F15.512630422246559
tp224
a(F183.75100923322123
F19.194733978517689
tp225
a(F224.5841280176827
F37.105800519340477
tp226
a(F257.38908199774147
F67.304888066184461
tp227
a(F278.61094538835096
F106.51945689622558
tp228
a(F285.94999999999999
F150.49999999999997
tp229
asg4
F0
sg5
(F0
F0
tp230
sg62
I01
sg7
(F1
F1
tp231
ss(dp232
g2
(L301L
L301L
L3L
tp233
sg9
(L301L
L301L
L3L
tp234
sg13
(L301L
L301L
L3L
tp235
sg17
(L301L
L301L
L3L
tp236
sg21
(L301L
L301L
L3L
tp237
sg25
(L301L
L301L
L3L
tp238
sg29
(L301L
L301L
L3L
tp239
sg33
(L301L
L301L
L3L
tp240
st.