((dp1
S'cam_110bL'
p2
(dp3
S'angle'
p4
F0
sS'pos'
p5
(F4.245003793637963
F154.50031255447544
tp6
sS'size'
p7
(F135.33955895324866
F137.03205548763228
tp8
ssS'cam_111cL'
p9
(dp10
S'angle'
p11
F0
sS'pos'
p12
(F21.746747096830291
F24.36686774207584
tp13
sS'size'
p14
(F273.27832904039815
F272.404955491983
tp15
ssS'cam_118bL'
p16
(dp17
sS'cam_109bL'
p18
(dp19
g4
F0
sg5
(F3.4059025801118992
F13.013011612678639
tp20
sg7
(F276.77182323405879
F255.81085807209487
tp21
ssS'cam_115bL'
p22
(dp23
S'angle'
p24
F0
sS'pos'
p25
(F0.65526829877950377
F12.139638064263522
tp26
sS'size'
p27
(F281.13869097613463
F276.77182323405884
tp28
ssS'cam_117L'
p29
(dp30
g24
F0
sg25
(F137.03205548763216
F5.1526496769421897
tp31
sg27
(F150.13265871385977
F287.25230581504087
tp32
ssS'cam_119bL'
p33
(dp34
S'angle'
p35
F0
sS'pos'
p36
(F5.1526496769421897
F5.1526496769421897
tp37
sS'size'
p38
(F289.87242646028631
F290.74580000870151
tp39
ssS'cam_120L'
p40
(dp41
S'angle'
p42
F0
sS'pos'
p43
(F12.113264313193042
F5.1211633818986115
tp44
sS'size'
p45
(F277.3010798417439
F278.62555334077001
tp46
ssS'cam_112bL'
p47
(dp48
g11
F0
sg12
(F20.873373548415145
F12.139638064263465
tp49
sg14
(F265.41796710466195
F256.68423162050999
tp50
ss(dp51
g2
(dp52
S'points'
p53
(lp54
(F297.30385612939716
F161.85385612939717
tp55
a(F288.49302064959625
F188.92843613026733
tp56
a(F251.5363653874808
F219.80837600781416
tp57
a(F232.06124909370166
F241.55547386955192
tp58
a(F209.01602774381618
F260.54506710031097
tp59
a(F210.76277484064653
F271.02554968129294
tp60
a(F196.63617446839746
F285.72853819103864
tp61
a(F169.77703245857862
F287.91888086038847
tp62
a(F134.93062374625219
F291.60098441665957
tp63
a(F96.090354730755294
F277.16161774067302
tp64
a(F64.875825962199556
F248.40705660384538
tp65
a(F36.615521689572049
F209.72683309638063
tp66
a(F23.88434984142258
F164.06060176937379
tp67
a(F29.124591131913562
F126.4589156496443
tp68
a(F42.729136528478207
F88.653046258373877
tp69
a(F58.762211123293298
F63.946799525551853
tp70
a(F74.256016020376038
F45.672720969706177
tp71
a(F117.48028894539337
F35.600222035795412
tp72
a(F147.94269374819942
F23.561601720593501
tp73
a(F196.63617446839734
F34.485679874095013
tp74
a(F247.78197296517462
F66.431514517769301
tp75
a(F278.61094538835101
F106.51945689622559
tp76
a(F291.19024129049097
F135.65264967694216
tp77
asg4
F0
sg5
(F0
F0
tp78
sS'closed'
p79
I01
sg7
(F1
F1
tp80
ssg9
(dp81
S'points'
p82
(lp83
(F292.93698838732132
F153.99349419366069
tp84
a(F284.72456022725714
F180.50656632913174
tp85
a(F273.2552223229182
F201.41928167544455
tp86
a(F266.12281748189321
F238.06197967589134
tp87
a(F240.30485188915574
F244.67998141552584
tp88
a(F223.0528189119037
F271.32478344050031
tp89
a(F200.28229225966444
F279.75928516544457
tp90
a(F192.59041410909768
F286.36074312616859
tp91
a(F147.00650580633933
F291.1131412948418
tp92
a(F96.090354730755308
F274.54149709542753
tp93
a(F84.090044027333221
F265.87452757214874
tp94
a(F76.263248384710863
F247.44446387408351
tp95
a(F65.392317800108685
F241.5944649025422
tp96
a(F57.5319558643722
F230.24060877314503
tp97
a(F38.235436650147086
F216.91386262063602
tp98
a(F37.858326616065234
F205.98253209330178
tp99
a(F29.584002315086884
F197.92578748178389
tp100
a(F26.504470486668062
F187.59506403870594
tp101
a(F30.457375863502044
F176.09144877140474
tp102
a(F21.723640379350385
F165.61096619042274
tp103
a(F22.114088382970575
F146.13313225792422
tp104
a(F30.847823867122234
F130.4124083864512
tp105
a(F33.122027495911361
F117.47437335607435
tp106
a(F44.431352638144709
F114.95530038234307
tp107
a(F37.444364250823376
F100.10795005928526
tp108
a(F57.015464026462972
F93.641500171667559
tp109
a(F52.421677309996895
F79.734289357897637
tp110
a(F64.036018706898545
F79.756742578371586
tp111
a(F65.951249588898563
F64.421549133495887
tp112
a(F80.630116126786703
F61.415898061653081
tp113
a(F91.110598707768702
F50.935415480671111
tp114
a(F118.18517870863883
F40.454932899689084
tp115
a(F173.2705266522392
F30.54859010791489
tp116
a(F202.7497893073035
F35.359053422510158
tp117
a(F238.17486393260779
F50.710790646296289
tp118
a(F282.10443958201159
F94.292227218413302
tp119
a(F288.57012064524548
F119.93192580546921
tp120
asS'angle'
p121
F0
sS'pos'
p122
(F0
F0
tp123
sS'closed'
p124
I01
sS'size'
p125
(F1
F1
tp126
ssg16
(dp127
S'points'
p128
(lp129
(F285.94999999999999
F150.5
tp130
a(F278.61094538835096
F194.48054310377438
tp131
a(F257.38908199774153
F233.6951119338155
tp132
a(F224.58412801768273
F263.89419948065949
tp133
a(F183.75100923322125
F281.80526602148234
tp134
a(F139.3146276557726
F285.48736957775344
tp135
a(F96.090354730755308
F274.54149709542753
tp136
a(F58.762211123293397
F250.1538037006757
tp137
a(F31.375280399081067
F214.96707438687164
tp138
a(F16.897361454101254
F172.79433725352544
tp139
a(F16.897361454101237
F128.20566274647462
tp140
a(F26.05301077294623
F77.669359057773647
tp141
a(F51.919293032548538
F49.325547834714399
tp142
a(F96.090354730755223
F26.458502904572491
tp143
a(F139.31462765577254
F15.512630422246559
tp144
a(F183.75100923322123
F19.194733978517689
tp145
a(F224.5841280176827
F37.105800519340477
tp146
a(F257.38908199774147
F67.304888066184461
tp147
a(F278.61094538835096
F106.51945689622558
tp148
a(F285.94999999999999
F150.49999999999997
tp149
asg35
F0
sg36
(F0
F0
tp150
sS'closed'
p151
I01
sg38
(F1
F1
tp152
ssg18
(dp153
g128
(lp154
(F277.21626451584831
F153.12012064524549
tp155
a(F269.00383635578419
F200.59415794268054
tp156
a(F242.54173167468369
F228.45487064332448
tp157
a(F204.49653640413393
F250.79359625443203
tp158
a(F166.28353826491792
F259.9709273111032
tp159
a(F120.97378313905412
F260.1595366737136
tp160
a(F71.63589537513063
F245.72016999772706
tp161
a(F32.561004670838415
F214.34548821565386
tp162
a(F37.488895237987222
F190.51261503124698
tp163
a(F17.770735002516414
F155.32686628522211
tp164
a(F5.5435053247040749
F148.29325436002344
tp165
a(F11.527596664334343
F105.38413348094355
tp166
a(F24.262828872901913
F76.517479722910181
tp167
a(F49.434959941361797
F48.505933504714221
tp168
a(F84.422840754213524
F23.433061269833871
tp169
a(F107.70469612765686
F20.367341286140288
tp170
a(F115.56505806339337
F27.354329673461621
tp171
a(F139.31462765577254
F15.512630422246559
tp172
a(F160.16992342601174
F20.941481075348008
tp173
a(F216.72376608194617
F45.839536003492185
tp174
a(F241.66835812626843
F71.671755808260286
tp175
a(F264.63696861370835
F106.51945689622559
tp176
a(F271.10264967694218
F129.539034838036
tp177
asg35
F0
sg36
(F0
F0
tp178
sg151
I01
sg38
(F1
F1
tp179
ssg22
(dp180
g82
(lp181
(F273.76618883225251
F144.95950394653397
tp182
a(F270.19706355155313
F168.19820781242376
tp183
a(F254.84944791020803
F218.61108463434971
tp184
a(F241.10257110254736
F213.6984749944217
tp185
a(F209.50064791357107
F251.01804039159236
tp186
a(F177.61772330845912
F264.33779505317909
tp187
a(F158.21239693491282
F282.57139251344915
tp188
a(F149.40327303943334
F276.45777767454297
tp189
a(F120.82890465624899
F288.1074902229991
tp190
a(F96.090354730755308
F274.54149709542753
tp191
a(F68.359333201022253
F265.10392154514579
tp192
a(F58.795777416407546
F250.06458451932889
tp193
a(F43.877166594571662
F230.93958563554204
tp194
a(F21.210559470024272
F216.00301613113743
tp195
a(F39.581559351273896
F202.02903935649482
tp196
a(F33.467944512367737
F187.18168903343695
tp197
a(F14.781182979192909
F194.00610922490762
tp198
a(F5.5435053247040962
F136.9860217685036
tp199
a(F19.517482099346733
F94.144094358283127
tp200
a(F40.109015883232715
F57.211598515427852
tp201
a(F80.270613623185596
F81.503489675201934
tp202
a(F86.08066630722989
F46.47932855724855
tp203
a(F87.279918434249936
F27.331876452987672
tp204
a(F112.00634357978622
F12.892509777001067
tp205
a(F162.61695888265257
F11.825592504747647
tp206
a(F167.02152083039232
F17.939207343653834
tp207
a(F177.58462250638559
F15.701239784857023
tp208
a(F227.85678242400024
F38.403659341850101
tp209
a(F256.02882434649609
F69.925008711429911
tp210
a(F272.44226195972016
F105.64608334781042
tp211
a(F277.80674455240285
F140.92906416056832
tp212
asg121
F0
sg122
(F-0.87337354841515946
F-0.87337354841505999
tp213
sg124
I01
sg125
(F1
F1
tp214
ssg29
(dp215
g82
(lp216
(F274.14137049982764
F191.91237547213302
tp217
a(F260.27010087163251
F213.75832510255316
tp218
a(F254.46797866078995
F209.72039584346209
tp219
a(F214.59377812539839
F248.54246225687331
tp220
a(F208.86340414620977
F265.64094657748984
tp221
a(F183.75100923322125
F281.80526602148234
tp222
a(F140.18800120418777
F281.9938753840928
tp223
a(F98.710475376000787
F270.17462935335169
tp224
a(F58.762211123293397
F250.1538037006757
tp225
a(F31.375280399081067
F214.96707438687164
tp226
a(F16.897361454101254
F172.79433725352544
tp227
a(F11.657120163610241
F121.21867435915328
tp228
a(F31.375280399081049
F86.032925613128384
tp229
a(F52.648596284387139
F49.972822750909188
tp230
a(F94.343607633924861
F19.471514517251194
tp231
a(F136.69450701052702
F8.5256420349252267
tp232
a(F186.37112987846672
F11.334372042781183
tp233
a(F232.5929591350972
F30.522445837016306
tp234
a(F224.58412801768267
F36.23242697092536
tp235
a(F245.69771677725308
F70.149633545804761
tp236
a(F247.78197296517462
F88.265853228148416
tp237
a(F256.77660667797187
F110.01295108988626
tp238
a(F264.111260886492
F109.43026069616113
tp239
a(F270.86155844448342
F124.85951225728438
tp240
a(F279.54051244761513
F123.41301992342909
tp241
a(F282.84771524346934
F150.53617319313514
tp242
asg121
F0
sg122
(F-0.87337354841525894
F0.87337354841508841
tp243
sg124
I01
sg125
(F1
F1
tp244
ssg33
(dp245
g128
(lp246
(F272.84939677377253
F71.89638064263508
tp247
a(F289.96480151774819
F126.3574063273914
tp248
a(F262.29181419714126
F131.28578193486638
tp249
a(F264.03856129397161
F146.13313225792419
tp250
a(F284.12615290752046
F140.8928909674332
tp251
a(F288.49302064959625
F180.19470064611568
tp252
a(F267.86956457872355
F224.96137644966382
tp253
a(F224.58412801768273
F263.89419948065949
tp254
a(F176.76402084589992
F289.66562795721882
tp255
a(F128.8341450747906
F288.98086377141408
tp256
a(F90.850113440264295
F279.78173838591852
tp257
a(F47.408354993896225
F254.52067144275151
tp258
a(F19.148050721268735
F214.09370083845644
tp259
a(F8.1636259699495959
F168.4274695114496
tp260
a(F8.1636259699495817
F130.82578339172011
tp261
a(F16.000473544064416
F103.33782838558105
tp262
a(F28.755159753835553
F82.539431419467718
tp263
a(F64.875825962199457
F54.339690492985028
tp264
a(F110.06433150539786
F20.344888065666339
tp265
a(F134.0743863652815
F9.3990155833404287
tp266
a(F173.27052665223923
F27.928469462669341
tp267
a(F224.5841280176827
F37.105800519340477
tp268
a(F181.94144774294597
F85.870357417277745
tp269
a(F164.8114858657338
F100.49308290596076
tp270
a(F133.90590258011184
F102.4644548371659
tp271
a(F95.477466449844528
F133.0325290316967
tp272
a(F90.237225159353514
F161.8538561293972
tp273
a(F92.857345804599035
F171.46096516196403
tp274
a(F88.490478062523195
F181.94144774294602
tp275
a(F91.110598707768702
F198.53554516283413
tp276
a(F97.224213546674832
F222.99000451845879
tp277
a(F129.539034838036
F248.31783742249866
tp278
a(F175.82783290403981
F247.44446387408345
tp279
a(F218.34817054770446
F220.93139173861238
tp280
a(F236.96398129310145
F197.66217161441901
tp281
a(F245.69771677725308
F167.09409741988819
tp282
a(F229.97699290578012
F124.29879354754505
tp283
a(F196.78879806600381
F97.224213546674889
tp284
a(F240.53457548241133
F42.201679996519374
tp285
asg35
F0
sg36
(F0
F0
tp286
sg151
I01
sg38
(F1
F1
tp287
ssg40
(dp288
g82
(lp289
(F295.91353741968646
F116.53971116850289
tp290
a(F290.07317271839321
F119.13542881352214
tp291
a(F291.37103154090283
F141.84795820744046
tp292
a(F284.32518387179522
F143.61803215359396
tp293
a(F281.7892039434588
F177.89459349378018
tp294
a(F275.62050881390667
F201.30856018154299
tp295
a(F243.99918451930179
F241.13415812942628
tp296
a(F198.29500906165947
F268.27032789774819
tp297
a(F150.73064967242681
F275.66146216252605
tp298
a(F132.56062615729212
F267.87430922746842
tp299
a(F115.5576881103096
F254.45832011733233
tp300
a(F95.637654554804456
F252.75644100700219
tp301
a(F73.786010569077362
F250.96089419060397
tp302
a(F61.42655672945007
F241.73551366987954
tp303
a(F55.315103865266465
F233.86215788468985
tp304
a(F62.428413036876279
F222.7655518373291
tp305
a(F49.99089157289562
F207.66530619262582
tp306
a(F38.371565471339579
F215.05978539382556
tp307
a(F19.092878236922534
F171.298501222939
tp308
a(F15.592647576255089
F142.06671831123856
tp309
a(F19.239801888602571
F139.00219636093269
tp310
a(F20.142008510375291
F126.73692948995921
tp311
a(F26.1362027115035
F127.05662698517474
tp312
a(F28.516687555657271
F121.67303025898383
tp313
a(F20.295838010210218
F116.67375640509781
tp314
a(F24.189414477739078
F100.45052112372758
tp315
a(F31.976567412796769
F99.152662301217958
tp316
a(F39.114790936599675
F88.769791721141019
tp317
a(F30.678708590287158
F80.982638786083299
tp318
a(F34.572285057816018
F75.142274084790017
tp319
a(F43.008367404128521
F79.684779963573675
tp320
a(F55.878597174119662
F64.694754287712783
tp321
a(F52.272917010745246
F55.388702178108019
tp322
a(F83.16045086099578
F27.63394871091424
tp323
a(F140.3211009963367
F7.0097243402844924
tp324
a(F163.74019414418345
F2.5323967267171383
tp325
a(F195.47723091541113
F8.4096257584259888
tp326
a(F197.74842934214868
F20.960002425373659
tp327
a(F215.45031025966284
F26.425276801424417
tp328
a(F221.93558453663815
F17.902440657771905
tp329
a(F253.73312568812378
F41.912828874199846
tp330
a(F247.29498927264098
F48.259638867632134
tp331
a(F260.87134921192666
F63.976428856863379
tp332
a(F269.30743155823939
F58.136064155570068
tp333
a(F274.71736892082208
F77.317633389759152
tp334
a(F283.3542823549808
F85.879894987441162
tp335
asg121
F0
sg122
(F-1.7467470968303473
F4.3668677420758968
tp336
sg124
I01
sg125
(F1
F1
tp337
ssg47
(dp338
g82
(lp339
(F278.08963806426351
F181.941447742946
tp340
a(F261.1434744200476
F218.06162891098387
tp341
a(F225.94763425479553
F256.40282419260978
tp342
a(F194.16867742075831
F274.51904387495364
tp343
a(F176.54858285484855
F274.37468206164152
tp344
a(F152.30956149027526
F268.70466279525482
tp345
a(F148.92173668833942
F257.53941602846817
tp346
a(F90.850113440264323
F228.2526990294237
tp347
a(F72.769754191050311
F246.57109032566831
tp348
a(F59.635584671708564
F244.91356241018471
tp349
a(F42.729136528478243
F220.20731567736266
tp350
a(F31.744711777159079
F197.24879660915013
tp351
a(F16.89736145410124
F155.2802427473448
tp352
a(F19.493967737725075
F115.56505806339339
tp353
a(F30.501906850665879
F99.133528839355876
tp354
a(F33.467944512367737
F83.250236772032252
tp355
a(F58.762211123293319
F57.833184686645723
tp356
a(F96.090354730755223
F26.458502904572491
tp357
a(F139.31462765577254
F15.512630422246559
tp358
a(F183.75100923322123
F19.194733978517689
tp359
a(F221.09063382402206
F40.5992947130012
tp360
a(F254.76896135249598
F67.304888066184446
tp361
a(F278.61094538835096
F106.51945689622558
tp362
a(F282.45650580633935
F138.27277032218768
tp363
asg121
F0
sg122
(F0
F0
tp364
sg124
I01
sg125
(F1
F1
tp365
ss(dp366
g2
(L301L
L301L
tp367
sg9
(L301L
L301L
tp368
sg16
(L301L
L301L
tp369
sg18
(L301L
L301L
tp370
sg22
(L301L
L301L
tp371
sg29
(L301L
L301L
tp372
sg33
(L301L
L301L
tp373
sg40
(L301L
L301L
tp374
sg47
(L301L
L301L
tp375
st.