(dp1
S'ratios'
p2
(lp3
cnumpy.core.multiarray
scalar
p4
(cnumpy
dtype
p5
(S'f8'
I0
I1
tRp6
(I3
S'<'
NNNI-1
I-1
I0
tbS'wI\xc6\xee\x96\xd8\xb3?'
tRp7
ag4
(g6
S'0 gE\xe1\x93\xbc?'
tRp8
ag4
(g6
S'\xf2R\x08\xea\x9cT\xbe?'
tRp9
as.