(dp1
S'ratios'
p2
(lp3
cnumpy.core.multiarray
scalar
p4
(cnumpy
dtype
p5
(S'f8'
I0
I1
tRp6
(I3
S'<'
NNNI-1
I-1
I0
tbS'\x0f\x1a\xd1\xa0GAe?'
tRp7
ag4
(g6
S'E\xc6h\x037\xf6b?'
tRp8
ag4
(g6
S'/=n;\x02\x15l?'
tRp9
as.