(dp1
S'ratios'
p2
(lp3
cnumpy.core.multiarray
scalar
p4
(cnumpy
dtype
p5
(S'f8'
I0
I1
tRp6
(I3
S'<'
NNNI-1
I-1
I0
tbS'`jc./n\xb2?'
tRp7
ag4
(g6
S'\xc0:0\x95%{\xb9?'
tRp8
ag4
(g6
S'\x93M\x83vd\xb8\xb8?'
tRp9
as.